
text:     file format elf32-littlearm

Disassembly of section .text:

00008020 <__do_global_dtors_aux>:
    8020:	e92d4030 	stmdb	sp!, {r4, r5, lr}
    8024:	e59f505c 	ldr	r5, [pc, #92]	; 8088 <.text+0x68>
    8028:	e5d53000 	ldrb	r3, [r5]
    802c:	e3530000 	cmp	r3, #0	; 0x0
    8030:	18bd8030 	ldmneia	sp!, {r4, r5, pc}
    8034:	e59f4050 	ldr	r4, [pc, #80]	; 808c <.text+0x6c>
    8038:	e5943000 	ldr	r3, [r4]
    803c:	e5932000 	ldr	r2, [r3]
    8040:	e3520000 	cmp	r2, #0	; 0x0
    8044:	0a000007 	beq	8068 <__do_global_dtors_aux+0x48>
    8048:	e2833004 	add	r3, r3, #4	; 0x4
    804c:	e5843000 	str	r3, [r4]
    8050:	e1a0e00f 	mov	lr, pc
    8054:	e12fff12 	bx	r2
    8058:	e5943000 	ldr	r3, [r4]
    805c:	e5932000 	ldr	r2, [r3]
    8060:	e3520000 	cmp	r2, #0	; 0x0
    8064:	1afffff7 	bne	8048 <__do_global_dtors_aux+0x28>
    8068:	e59f3020 	ldr	r3, [pc, #32]	; 8090 <.text+0x70>
    806c:	e3530000 	cmp	r3, #0	; 0x0
    8070:	159f001c 	ldrne	r0, [pc, #28]	; 8094 <.text+0x74>
    8074:	11a0e00f 	movne	lr, pc
    8078:	112fff13 	bxne	r3
    807c:	e3a03001 	mov	r3, #1	; 0x1
    8080:	e5c53000 	strb	r3, [r5]
    8084:	e8bd8030 	ldmia	sp!, {r4, r5, pc}
    8088:	00011428 	andeq	r1, r1, r8, lsr #8
    808c:	00010abc 	streqh	r0, [r1], -ip
    8090:	00000000 	andeq	r0, r0, r0
    8094:	0001099c 	muleq	r1, ip, r9

00008098 <call___do_global_dtors_aux>:
    8098:	e52de004 	str	lr, [sp, #-4]!
    809c:	e49df004 	ldr	pc, [sp], #4

000080a0 <frame_dummy>:
    80a0:	e59f303c 	ldr	r3, [pc, #60]	; 80e4 <.text+0xc4>
    80a4:	e3530000 	cmp	r3, #0	; 0x0
    80a8:	e52de004 	str	lr, [sp, #-4]!
    80ac:	e59f0034 	ldr	r0, [pc, #52]	; 80e8 <.text+0xc8>
    80b0:	e59f1034 	ldr	r1, [pc, #52]	; 80ec <.text+0xcc>
    80b4:	11a0e00f 	movne	lr, pc
    80b8:	112fff13 	bxne	r3
    80bc:	e59f002c 	ldr	r0, [pc, #44]	; 80f0 <.text+0xd0>
    80c0:	e5903000 	ldr	r3, [r0]
    80c4:	e3530000 	cmp	r3, #0	; 0x0
    80c8:	e59f3024 	ldr	r3, [pc, #36]	; 80f4 <.text+0xd4>
    80cc:	049df004 	ldreq	pc, [sp], #4
    80d0:	e3530000 	cmp	r3, #0	; 0x0
    80d4:	049df004 	ldreq	pc, [sp], #4
    80d8:	e1a0e00f 	mov	lr, pc
    80dc:	e12fff13 	bx	r3
    80e0:	e49df004 	ldr	pc, [sp], #4
    80e4:	00000000 	andeq	r0, r0, r0
    80e8:	0001099c 	muleq	r1, ip, r9
    80ec:	0001142c 	andeq	r1, r1, ip, lsr #8
    80f0:	00010ab0 	streqh	r0, [r1], -r0
    80f4:	00000000 	andeq	r0, r0, r0

000080f8 <call_frame_dummy>:
    80f8:	e52de004 	str	lr, [sp, #-4]!
    80fc:	e49df004 	ldr	pc, [sp], #4

00008100 <_mainCRTStartup>:
    8100:	e3a00016 	mov	r0, #22	; 0x16
    8104:	e28f10e8 	add	r1, pc, #232	; 0xe8
    8108:	ef123456 	svc	0x00123456
    810c:	e59f00e0 	ldr	r0, [pc, #224]	; 81f4 <.text+0x1d4>
    8110:	e590d008 	ldr	sp, [r0, #8]
    8114:	e590a00c 	ldr	sl, [r0, #12]
    8118:	e28aac01 	add	sl, sl, #256	; 0x100
    811c:	e3a01000 	mov	r1, #0	; 0x0
    8120:	e1a0b001 	mov	fp, r1
    8124:	e1a07001 	mov	r7, r1
    8128:	e59f00c8 	ldr	r0, [pc, #200]	; 81f8 <.text+0x1d8>
    812c:	e59f20c8 	ldr	r2, [pc, #200]	; 81fc <.text+0x1dc>
    8130:	e0422000 	sub	r2, r2, r0
    8134:	eb000084 	bl	834c <memset>
    8138:	eb000226 	bl	89d8 <initialise_monitor_handles>
    813c:	e3a00015 	mov	r0, #21	; 0x15
    8140:	e28f10bc 	add	r1, pc, #188	; 0xbc
    8144:	ef123456 	svc	0x00123456
    8148:	e59f10b4 	ldr	r1, [pc, #180]	; 8204 <.text+0x1e4>
    814c:	e3a00000 	mov	r0, #0	; 0x0
    8150:	e92d0001 	stmdb	sp!, {r0}
    8154:	e4d13001 	ldrb	r3, [r1], #1
    8158:	e3530000 	cmp	r3, #0	; 0x0
    815c:	0a000011 	beq	81a8 <_mainCRTStartup+0xa8>
    8160:	e3530020 	cmp	r3, #32	; 0x20
    8164:	0afffffa 	beq	8154 <_mainCRTStartup+0x54>
    8168:	e3530022 	cmp	r3, #34	; 0x22
    816c:	13530027 	cmpne	r3, #39	; 0x27
    8170:	01a02003 	moveq	r2, r3
    8174:	13a02020 	movne	r2, #32	; 0x20
    8178:	12411001 	subne	r1, r1, #1	; 0x1
    817c:	e92d0002 	stmdb	sp!, {r1}
    8180:	e2800001 	add	r0, r0, #1	; 0x1
    8184:	e4d13001 	ldrb	r3, [r1], #1
    8188:	e3530000 	cmp	r3, #0	; 0x0
    818c:	0a000005 	beq	81a8 <_mainCRTStartup+0xa8>
    8190:	e1520003 	cmp	r2, r3
    8194:	1afffffa 	bne	8184 <_mainCRTStartup+0x84>
    8198:	e3a02000 	mov	r2, #0	; 0x0
    819c:	e2413001 	sub	r3, r1, #1	; 0x1
    81a0:	e5c32000 	strb	r2, [r3]
    81a4:	eaffffea 	b	8154 <_mainCRTStartup+0x54>
    81a8:	e1a0100d 	mov	r1, sp
    81ac:	e08d2100 	add	r2, sp, r0, lsl #2
    81b0:	e1a0300d 	mov	r3, sp
    81b4:	e1520003 	cmp	r2, r3
    81b8:	85124004 	ldrhi	r4, [r2, #-4]
    81bc:	85935000 	ldrhi	r5, [r3]
    81c0:	85225004 	strhi	r5, [r2, #-4]!
    81c4:	84834004 	strhi	r4, [r3], #4
    81c8:	8afffff9 	bhi	81b4 <_mainCRTStartup+0xb4>
    81cc:	e3cdd007 	bic	sp, sp, #7	; 0x7
    81d0:	e1a04000 	mov	r4, r0
    81d4:	e1a05001 	mov	r5, r1
    81d8:	e59f0020 	ldr	r0, [pc, #32]	; 8200 <.text+0x1e0>
    81dc:	eb000019 	bl	8248 <atexit>
    81e0:	eb00003a 	bl	82d0 <__libc_init_array>
    81e4:	e1a00004 	mov	r0, r4
    81e8:	e1a01005 	mov	r1, r5
    81ec:	eb000006 	bl	820c <main>
    81f0:	eb000019 	bl	825c <exit>
    81f4:	00010ac0 	andeq	r0, r1, r0, asr #21
    81f8:	00011428 	andeq	r1, r1, r8, lsr #8
    81fc:	00011538 	andeq	r1, r1, r8, lsr r5
    8200:	0000828c 	andeq	r8, r0, ip, lsl #5
    8204:	00010ad0 	ldreqd	r0, [r1], -r0
    8208:	000000ff 	streqd	r0, [r0], -pc

0000820c <main>:
    820c:	e24dd004 	sub	sp, sp, #4	; 0x4
    8210:	e58de000 	str	lr, [sp]
    8214:	e3a04064 	mov	r4, #100	; 0x64
    8218:	e3a05064 	mov	r5, #100	; 0x64
    821c:	e1540005 	cmp	r4, r5
    8220:	0a000001 	beq	822c <else>
    8224:	e59f0014 	ldr	r0, [pc, #20]	; 8240 <.text+0x220>
    8228:	ea000000 	b	8230 <finish>

0000822c <else>:
    822c:	e59f0010 	ldr	r0, [pc, #16]	; 8244 <.text+0x224>

00008230 <finish>:
    8230:	eb00006b 	bl	83e4 <printf>
    8234:	e59de000 	ldr	lr, [sp]
    8238:	e28dd004 	add	sp, sp, #4	; 0x4
    823c:	e1a0f00e 	mov	pc, lr
    8240:	00010be6 	andeq	r0, r1, r6, ror #23
    8244:	00010bd0 	ldreqd	r0, [r1], -r0

00008248 <atexit>:
    8248:	e1a01000 	mov	r1, r0
    824c:	e3a00000 	mov	r0, #0	; 0x0
    8250:	e1a02000 	mov	r2, r0
    8254:	e1a03000 	mov	r3, r0
    8258:	ea000be7 	b	b1fc <__register_exitproc>

0000825c <exit>:
    825c:	e3a01000 	mov	r1, #0	; 0x0
    8260:	e1a04000 	mov	r4, r0
    8264:	eb000c1c 	bl	b2dc <__call_exitprocs>
    8268:	e59f3018 	ldr	r3, [pc, #24]	; 8288 <.text+0x268>
    826c:	e5930000 	ldr	r0, [r3]
    8270:	e590203c 	ldr	r2, [r0, #60]
    8274:	e3520000 	cmp	r2, #0	; 0x0
    8278:	11a0e00f 	movne	lr, pc
    827c:	112fff12 	bxne	r2
    8280:	e1a00004 	mov	r0, r4
    8284:	eb00022d 	bl	8b40 <_exit>
    8288:	00010778 	andeq	r0, r1, r8, ror r7

0000828c <__libc_fini_array>:
    828c:	e59f2034 	ldr	r2, [pc, #52]	; 82c8 <.text+0x2a8>
    8290:	e59f3034 	ldr	r3, [pc, #52]	; 82cc <.text+0x2ac>
    8294:	e0623003 	rsb	r3, r2, r3
    8298:	e92d4070 	stmdb	sp!, {r4, r5, r6, lr}
    829c:	e1b06143 	movs	r6, r3, asr #2
    82a0:	0a000006 	beq	82c0 <__libc_fini_array+0x34>
    82a4:	e1a05002 	mov	r5, r2
    82a8:	e3a04000 	mov	r4, #0	; 0x0
    82ac:	e2844001 	add	r4, r4, #1	; 0x1
    82b0:	e1a0e00f 	mov	lr, pc
    82b4:	e495f004 	ldr	pc, [r5], #4
    82b8:	e1560004 	cmp	r6, r4
    82bc:	1afffffa 	bne	82ac <__libc_fini_array+0x20>
    82c0:	e8bd4070 	ldmia	sp!, {r4, r5, r6, lr}
    82c4:	ea002124 	b	1075c <_fini>
    82c8:	00010aa0 	andeq	r0, r1, r0, lsr #21
    82cc:	00010aa0 	andeq	r0, r1, r0, lsr #21

000082d0 <__libc_init_array>:
    82d0:	e59f2064 	ldr	r2, [pc, #100]	; 833c <.text+0x31c>
    82d4:	e59f3064 	ldr	r3, [pc, #100]	; 8340 <.text+0x320>
    82d8:	e0623003 	rsb	r3, r2, r3
    82dc:	e92d4070 	stmdb	sp!, {r4, r5, r6, lr}
    82e0:	e1b06143 	movs	r6, r3, asr #2
    82e4:	0a000006 	beq	8304 <__libc_init_array+0x34>
    82e8:	e1a05002 	mov	r5, r2
    82ec:	e3a04000 	mov	r4, #0	; 0x0
    82f0:	e2844001 	add	r4, r4, #1	; 0x1
    82f4:	e1a0e00f 	mov	lr, pc
    82f8:	e495f004 	ldr	pc, [r5], #4
    82fc:	e1560004 	cmp	r6, r4
    8300:	1afffffa 	bne	82f0 <__libc_init_array+0x20>
    8304:	ebffff3d 	bl	8000 <_init>
    8308:	e59f2034 	ldr	r2, [pc, #52]	; 8344 <.text+0x324>
    830c:	e59f3034 	ldr	r3, [pc, #52]	; 8348 <.text+0x328>
    8310:	e0623003 	rsb	r3, r2, r3
    8314:	e1b06143 	movs	r6, r3, asr #2
    8318:	08bd8070 	ldmeqia	sp!, {r4, r5, r6, pc}
    831c:	e1a05002 	mov	r5, r2
    8320:	e3a04000 	mov	r4, #0	; 0x0
    8324:	e2844001 	add	r4, r4, #1	; 0x1
    8328:	e1a0e00f 	mov	lr, pc
    832c:	e495f004 	ldr	pc, [r5], #4
    8330:	e1560004 	cmp	r6, r4
    8334:	1afffffa 	bne	8324 <__libc_init_array+0x54>
    8338:	e8bd8070 	ldmia	sp!, {r4, r5, r6, pc}
    833c:	00010aa0 	andeq	r0, r1, r0, lsr #21
    8340:	00010aa0 	andeq	r0, r1, r0, lsr #21
    8344:	00010aa0 	andeq	r0, r1, r0, lsr #21
    8348:	00010aa0 	andeq	r0, r1, r0, lsr #21

0000834c <memset>:
    834c:	e3520003 	cmp	r2, #3	; 0x3
    8350:	e20110ff 	and	r1, r1, #255	; 0xff
    8354:	e1a0c000 	mov	ip, r0
    8358:	9a000001 	bls	8364 <memset+0x18>
    835c:	e3100003 	tst	r0, #3	; 0x3
    8360:	0a000008 	beq	8388 <memset+0x3c>
    8364:	e3520000 	cmp	r2, #0	; 0x0
    8368:	012fff1e 	bxeq	lr
    836c:	e20110ff 	and	r1, r1, #255	; 0xff
    8370:	e3a03000 	mov	r3, #0	; 0x0
    8374:	e7c3100c 	strb	r1, [r3, ip]
    8378:	e2833001 	add	r3, r3, #1	; 0x1
    837c:	e1530002 	cmp	r3, r2
    8380:	1afffffb 	bne	8374 <memset+0x28>
    8384:	e12fff1e 	bx	lr
    8388:	e1813401 	orr	r3, r1, r1, lsl #8
    838c:	e352000f 	cmp	r2, #15	; 0xf
    8390:	e183c803 	orr	ip, r3, r3, lsl #16
    8394:	e1a03000 	mov	r3, r0
    8398:	9a000009 	bls	83c4 <memset+0x78>
    839c:	e2422010 	sub	r2, r2, #16	; 0x10
    83a0:	e352000f 	cmp	r2, #15	; 0xf
    83a4:	e583c000 	str	ip, [r3]
    83a8:	e583c004 	str	ip, [r3, #4]
    83ac:	e583c008 	str	ip, [r3, #8]
    83b0:	e583c00c 	str	ip, [r3, #12]
    83b4:	e2833010 	add	r3, r3, #16	; 0x10
    83b8:	8afffff7 	bhi	839c <memset+0x50>
    83bc:	e3520003 	cmp	r2, #3	; 0x3
    83c0:	9a000003 	bls	83d4 <memset+0x88>
    83c4:	e2422004 	sub	r2, r2, #4	; 0x4
    83c8:	e3520003 	cmp	r2, #3	; 0x3
    83cc:	e483c004 	str	ip, [r3], #4
    83d0:	8afffffb 	bhi	83c4 <memset+0x78>
    83d4:	e3520000 	cmp	r2, #0	; 0x0
    83d8:	e1a0c003 	mov	ip, r3
    83dc:	1affffe2 	bne	836c <memset+0x20>
    83e0:	e12fff1e 	bx	lr

000083e4 <printf>:
    83e4:	e92d000f 	stmdb	sp!, {r0, r1, r2, r3}
    83e8:	e52de004 	str	lr, [sp, #-4]!
    83ec:	e59f302c 	ldr	r3, [pc, #44]	; 8420 <.text+0x400>
    83f0:	e24dd004 	sub	sp, sp, #4	; 0x4
    83f4:	e5932000 	ldr	r2, [r3]
    83f8:	e28dc00c 	add	ip, sp, #12	; 0xc
    83fc:	e5920008 	ldr	r0, [r2, #8]
    8400:	e59d1008 	ldr	r1, [sp, #8]
    8404:	e1a0200c 	mov	r2, ip
    8408:	e58dc000 	str	ip, [sp]
    840c:	eb0009aa 	bl	aabc <vfprintf>
    8410:	e28dd004 	add	sp, sp, #4	; 0x4
    8414:	e49de004 	ldr	lr, [sp], #4
    8418:	e28dd010 	add	sp, sp, #16	; 0x10
    841c:	e12fff1e 	bx	lr
    8420:	00010c00 	andeq	r0, r1, r0, lsl #24

00008424 <_printf_r>:
    8424:	e92d000e 	stmdb	sp!, {r1, r2, r3}
    8428:	e52de004 	str	lr, [sp, #-4]!
    842c:	e24dd004 	sub	sp, sp, #4	; 0x4
    8430:	e28dc00c 	add	ip, sp, #12	; 0xc
    8434:	e1a0300c 	mov	r3, ip
    8438:	e5901008 	ldr	r1, [r0, #8]
    843c:	e59d2008 	ldr	r2, [sp, #8]
    8440:	e58dc000 	str	ip, [sp]
    8444:	eb0001d5 	bl	8ba0 <_vfprintf_r>
    8448:	e28dd004 	add	sp, sp, #4	; 0x4
    844c:	e49de004 	ldr	lr, [sp], #4
    8450:	e28dd00c 	add	sp, sp, #12	; 0xc
    8454:	e12fff1e 	bx	lr

00008458 <findslot>:
    8458:	e59f2024 	ldr	r2, [pc, #36]	; 8484 <.text+0x464>
    845c:	e1a01000 	mov	r1, r0
    8460:	e3a00000 	mov	r0, #0	; 0x0
    8464:	e5923000 	ldr	r3, [r2]
    8468:	e1530001 	cmp	r3, r1
    846c:	e2822008 	add	r2, r2, #8	; 0x8
    8470:	012fff1e 	bxeq	lr
    8474:	e2800001 	add	r0, r0, #1	; 0x1
    8478:	e3500014 	cmp	r0, #20	; 0x14
    847c:	1afffff8 	bne	8464 <findslot+0xc>
    8480:	e12fff1e 	bx	lr
    8484:	00011454 	andeq	r1, r1, r4, asr r4

00008488 <_getpid>:
    8488:	e3a00001 	mov	r0, #1	; 0x1
    848c:	e12fff1e 	bx	lr

00008490 <_link>:
    8490:	e3e00000 	mvn	r0, #0	; 0x0
    8494:	e12fff1e 	bx	lr

00008498 <_unlink>:
    8498:	e3e00000 	mvn	r0, #0	; 0x0
    849c:	e12fff1e 	bx	lr

000084a0 <_raise>:
    84a0:	e12fff1e 	bx	lr

000084a4 <isatty>:
    84a4:	e3a00001 	mov	r0, #1	; 0x1
    84a8:	e12fff1e 	bx	lr

000084ac <_rename>:
    84ac:	e52de004 	str	lr, [sp, #-4]!
    84b0:	eb001170 	bl	ca78 <__errno>
    84b4:	e3a03058 	mov	r3, #88	; 0x58
    84b8:	e5803000 	str	r3, [r0]
    84bc:	e3e00000 	mvn	r0, #0	; 0x0
    84c0:	e49df004 	ldr	pc, [sp], #4

000084c4 <_system>:
    84c4:	e3500000 	cmp	r0, #0	; 0x0
    84c8:	e52de004 	str	lr, [sp, #-4]!
    84cc:	049df004 	ldreq	pc, [sp], #4
    84d0:	eb001168 	bl	ca78 <__errno>
    84d4:	e3a03058 	mov	r3, #88	; 0x58
    84d8:	e5803000 	str	r3, [r0]
    84dc:	e3e00000 	mvn	r0, #0	; 0x0
    84e0:	e49df004 	ldr	pc, [sp], #4

000084e4 <_sbrk>:
    84e4:	e59f1044 	ldr	r1, [pc, #68]	; 8530 <.text+0x510>
    84e8:	e5913000 	ldr	r3, [r1]
    84ec:	e52de004 	str	lr, [sp, #-4]!
    84f0:	e3530000 	cmp	r3, #0	; 0x0
    84f4:	059f3038 	ldreq	r3, [pc, #56]	; 8534 <.text+0x514>
    84f8:	e0830000 	add	r0, r3, r0
    84fc:	05813000 	streq	r3, [r1]
    8500:	e150000d 	cmp	r0, sp
    8504:	e1a02003 	mov	r2, r3
    8508:	95810000 	strls	r0, [r1]
    850c:	8a000001 	bhi	8518 <_sbrk+0x34>
    8510:	e1a00002 	mov	r0, r2
    8514:	e49df004 	ldr	pc, [sp], #4
    8518:	eb001156 	bl	ca78 <__errno>
    851c:	e3e02000 	mvn	r2, #0	; 0x0
    8520:	e3a0300c 	mov	r3, #12	; 0xc
    8524:	e5803000 	str	r3, [r0]
    8528:	e1a00002 	mov	r0, r2
    852c:	e49df004 	ldr	pc, [sp], #4
    8530:	00011444 	andeq	r1, r1, r4, asr #8
    8534:	00011538 	andeq	r1, r1, r8, lsr r5

00008538 <error>:
    8538:	e92d40f0 	stmdb	sp!, {r4, r5, r6, r7, lr}
    853c:	e1a07000 	mov	r7, r0
    8540:	eb00114c 	bl	ca78 <__errno>
    8544:	e3a04013 	mov	r4, #19	; 0x13
    8548:	e1a06000 	mov	r6, r0
    854c:	e3a05000 	mov	r5, #0	; 0x0
    8550:	e1a00004 	mov	r0, r4
    8554:	e1a01005 	mov	r1, r5
    8558:	ef123456 	svc	0x00123456
    855c:	e1a04000 	mov	r4, r0
    8560:	e1a00007 	mov	r0, r7
    8564:	e5864000 	str	r4, [r6]
    8568:	e8bd80f0 	ldmia	sp!, {r4, r5, r6, r7, pc}

0000856c <wrap>:
    856c:	e3700001 	cmn	r0, #1	; 0x1
    8570:	112fff1e 	bxne	lr
    8574:	eaffffef 	b	8538 <error>

00008578 <_fstat>:
    8578:	e92d4010 	stmdb	sp!, {r4, lr}
    857c:	e1a00001 	mov	r0, r1
    8580:	e1a04001 	mov	r4, r1
    8584:	e3a0203c 	mov	r2, #60	; 0x3c
    8588:	e3a01000 	mov	r1, #0	; 0x0
    858c:	ebffff6e 	bl	834c <memset>
    8590:	e3a03b01 	mov	r3, #1024	; 0x400
    8594:	e3a02a02 	mov	r2, #8192	; 0x2000
    8598:	e3a00000 	mov	r0, #0	; 0x0
    859c:	e584302c 	str	r3, [r4, #44]
    85a0:	e5842004 	str	r2, [r4, #4]
    85a4:	e8bd8010 	ldmia	sp!, {r4, pc}

000085a8 <remap_handle>:
    85a8:	e59f3064 	ldr	r3, [pc, #100]	; 8614 <.text+0x5f4>
    85ac:	e5932000 	ldr	r2, [r3]
    85b0:	e3520000 	cmp	r2, #0	; 0x0
    85b4:	e92d4010 	stmdb	sp!, {r4, lr}
    85b8:	e1a04000 	mov	r4, r0
    85bc:	0a000002 	beq	85cc <remap_handle+0x24>
    85c0:	e5923038 	ldr	r3, [r2, #56]
    85c4:	e3530000 	cmp	r3, #0	; 0x0
    85c8:	0a00000b 	beq	85fc <remap_handle+0x54>
    85cc:	e3540000 	cmp	r4, #0	; 0x0
    85d0:	1a000002 	bne	85e0 <remap_handle+0x38>
    85d4:	e59f303c 	ldr	r3, [pc, #60]	; 8618 <.text+0x5f8>
    85d8:	e5930000 	ldr	r0, [r3]
    85dc:	e8bd8010 	ldmia	sp!, {r4, pc}
    85e0:	e3540001 	cmp	r4, #1	; 0x1
    85e4:	0a000007 	beq	8608 <remap_handle+0x60>
    85e8:	e3540002 	cmp	r4, #2	; 0x2
    85ec:	059f3028 	ldreq	r3, [pc, #40]	; 861c <.text+0x5fc>
    85f0:	05930000 	ldreq	r0, [r3]
    85f4:	12440020 	subne	r0, r4, #32	; 0x20
    85f8:	e8bd8010 	ldmia	sp!, {r4, pc}
    85fc:	e1a00002 	mov	r0, r2
    8600:	eb001173 	bl	cbd4 <__sinit>
    8604:	eafffff0 	b	85cc <remap_handle+0x24>
    8608:	e59f3010 	ldr	r3, [pc, #16]	; 8620 <.text+0x600>
    860c:	e5930000 	ldr	r0, [r3]
    8610:	e8bd8010 	ldmia	sp!, {r4, pc}
    8614:	00010c00 	andeq	r0, r1, r0, lsl #24
    8618:	00011448 	andeq	r1, r1, r8, asr #8
    861c:	00011450 	andeq	r1, r1, r0, asr r4
    8620:	0001144c 	andeq	r1, r1, ip, asr #8

00008624 <_swiclose>:
    8624:	e92d4030 	stmdb	sp!, {r4, r5, lr}
    8628:	e24dd004 	sub	sp, sp, #4	; 0x4
    862c:	ebffffdd 	bl	85a8 <remap_handle>
    8630:	e58d0000 	str	r0, [sp]
    8634:	ebffff87 	bl	8458 <findslot>
    8638:	e3500014 	cmp	r0, #20	; 0x14
    863c:	159f3028 	ldrne	r3, [pc, #40]	; 866c <.text+0x64c>
    8640:	13e02000 	mvnne	r2, #0	; 0x0
    8644:	17832180 	strne	r2, [r3, r0, lsl #3]
    8648:	e3a04002 	mov	r4, #2	; 0x2
    864c:	e1a0500d 	mov	r5, sp
    8650:	e1a00004 	mov	r0, r4
    8654:	e1a0100d 	mov	r1, sp
    8658:	ef123456 	svc	0x00123456
    865c:	e1a04000 	mov	r4, r0
    8660:	e1a00004 	mov	r0, r4
    8664:	e28dd004 	add	sp, sp, #4	; 0x4
    8668:	e8bd8030 	ldmia	sp!, {r4, r5, pc}
    866c:	00011454 	andeq	r1, r1, r4, asr r4

00008670 <_close>:
    8670:	e52de004 	str	lr, [sp, #-4]!
    8674:	ebffffea 	bl	8624 <_swiclose>
    8678:	e49de004 	ldr	lr, [sp], #4
    867c:	eaffffba 	b	856c <wrap>

00008680 <_swiwrite>:
    8680:	e92d4030 	stmdb	sp!, {r4, r5, lr}
    8684:	e24dd00c 	sub	sp, sp, #12	; 0xc
    8688:	e1a04001 	mov	r4, r1
    868c:	e1a05002 	mov	r5, r2
    8690:	ebffffc4 	bl	85a8 <remap_handle>
    8694:	e88d0031 	stmia	sp, {r0, r4, r5}
    8698:	e3a04005 	mov	r4, #5	; 0x5
    869c:	e1a0500d 	mov	r5, sp
    86a0:	e1a00004 	mov	r0, r4
    86a4:	e1a0100d 	mov	r1, sp
    86a8:	ef123456 	svc	0x00123456
    86ac:	e1a04000 	mov	r4, r0
    86b0:	e1a00004 	mov	r0, r4
    86b4:	e28dd00c 	add	sp, sp, #12	; 0xc
    86b8:	e8bd8030 	ldmia	sp!, {r4, r5, pc}

000086bc <_write>:
    86bc:	e92d40f0 	stmdb	sp!, {r4, r5, r6, r7, lr}
    86c0:	e1a06002 	mov	r6, r2
    86c4:	e1a05001 	mov	r5, r1
    86c8:	e1a04000 	mov	r4, r0
    86cc:	ebffffb5 	bl	85a8 <remap_handle>
    86d0:	ebffff60 	bl	8458 <findslot>
    86d4:	e1a02006 	mov	r2, r6
    86d8:	e1a07000 	mov	r7, r0
    86dc:	e1a01005 	mov	r1, r5
    86e0:	e1a00004 	mov	r0, r4
    86e4:	ebffffe5 	bl	8680 <_swiwrite>
    86e8:	e1a02000 	mov	r2, r0
    86ec:	e3e00000 	mvn	r0, #0	; 0x0
    86f0:	e1520000 	cmp	r2, r0
    86f4:	11560002 	cmpne	r6, r2
    86f8:	0a000008 	beq	8720 <_write+0x64>
    86fc:	e59f3024 	ldr	r3, [pc, #36]	; 8728 <.text+0x708>
    8700:	e3570014 	cmp	r7, #20	; 0x14
    8704:	e0831187 	add	r1, r3, r7, lsl #3
    8708:	e0620006 	rsb	r0, r2, r6
    870c:	08bd80f0 	ldmeqia	sp!, {r4, r5, r6, r7, pc}
    8710:	e5913004 	ldr	r3, [r1, #4]
    8714:	e0833000 	add	r3, r3, r0
    8718:	e5813004 	str	r3, [r1, #4]
    871c:	e8bd80f0 	ldmia	sp!, {r4, r5, r6, r7, pc}
    8720:	e8bd40f0 	ldmia	sp!, {r4, r5, r6, r7, lr}
    8724:	eaffff83 	b	8538 <error>
    8728:	00011454 	andeq	r1, r1, r4, asr r4

0000872c <_swilseek>:
    872c:	e92d41f0 	stmdb	sp!, {r4, r5, r6, r7, r8, lr}
    8730:	e24dd008 	sub	sp, sp, #8	; 0x8
    8734:	e1a04002 	mov	r4, r2
    8738:	e1a05001 	mov	r5, r1
    873c:	e1a08000 	mov	r8, r0
    8740:	ebffff98 	bl	85a8 <remap_handle>
    8744:	e1a07000 	mov	r7, r0
    8748:	ebffff42 	bl	8458 <findslot>
    874c:	e3540001 	cmp	r4, #1	; 0x1
    8750:	e1a06000 	mov	r6, r0
    8754:	0a00001a 	beq	87c4 <_swilseek+0x98>
    8758:	e3540002 	cmp	r4, #2	; 0x2
    875c:	11a0700d 	movne	r7, sp
    8760:	0a00001f 	beq	87e4 <_swilseek+0xb8>
    8764:	e1a00008 	mov	r0, r8
    8768:	ebffff8e 	bl	85a8 <remap_handle>
    876c:	e3a0400a 	mov	r4, #10	; 0xa
    8770:	e88d0021 	stmia	sp, {r0, r5}
    8774:	e1a00004 	mov	r0, r4
    8778:	e1a01007 	mov	r1, r7
    877c:	ef123456 	svc	0x00123456
    8780:	e1a04000 	mov	r4, r0
    8784:	e2744001 	rsbs	r4, r4, #1	; 0x1
    8788:	33a04000 	movcc	r4, #0	; 0x0
    878c:	e3560014 	cmp	r6, #20	; 0x14
    8790:	03a03000 	moveq	r3, #0	; 0x0
    8794:	12043001 	andne	r3, r4, #1	; 0x1
    8798:	e3530000 	cmp	r3, #0	; 0x0
    879c:	159f3064 	ldrne	r3, [pc, #100]	; 8808 <.text+0x7e8>
    87a0:	10833186 	addne	r3, r3, r6, lsl #3
    87a4:	15835004 	strne	r5, [r3, #4]
    87a8:	e3540000 	cmp	r4, #0	; 0x0
    87ac:	0a000002 	beq	87bc <_swilseek+0x90>
    87b0:	e1a00005 	mov	r0, r5
    87b4:	e28dd008 	add	sp, sp, #8	; 0x8
    87b8:	e8bd81f0 	ldmia	sp!, {r4, r5, r6, r7, r8, pc}
    87bc:	e3e05000 	mvn	r5, #0	; 0x0
    87c0:	eafffffa 	b	87b0 <_swilseek+0x84>
    87c4:	e3500014 	cmp	r0, #20	; 0x14
    87c8:	0afffffb 	beq	87bc <_swilseek+0x90>
    87cc:	e59f3034 	ldr	r3, [pc, #52]	; 8808 <.text+0x7e8>
    87d0:	e0833180 	add	r3, r3, r0, lsl #3
    87d4:	e5932004 	ldr	r2, [r3, #4]
    87d8:	e1a0700d 	mov	r7, sp
    87dc:	e0855002 	add	r5, r5, r2
    87e0:	eaffffdf 	b	8764 <_swilseek+0x38>
    87e4:	e58d7000 	str	r7, [sp]
    87e8:	e284400a 	add	r4, r4, #10	; 0xa
    87ec:	e1a0700d 	mov	r7, sp
    87f0:	e1a00004 	mov	r0, r4
    87f4:	e1a0100d 	mov	r1, sp
    87f8:	ef123456 	svc	0x00123456
    87fc:	e1a04000 	mov	r4, r0
    8800:	e0855004 	add	r5, r5, r4
    8804:	eaffffd6 	b	8764 <_swilseek+0x38>
    8808:	00011454 	andeq	r1, r1, r4, asr r4

0000880c <_lseek>:
    880c:	e52de004 	str	lr, [sp, #-4]!
    8810:	ebffffc5 	bl	872c <_swilseek>
    8814:	e49de004 	ldr	lr, [sp], #4
    8818:	eaffff53 	b	856c <wrap>

0000881c <_swiread>:
    881c:	e92d4030 	stmdb	sp!, {r4, r5, lr}
    8820:	e24dd00c 	sub	sp, sp, #12	; 0xc
    8824:	e1a04001 	mov	r4, r1
    8828:	e1a05002 	mov	r5, r2
    882c:	ebffff5d 	bl	85a8 <remap_handle>
    8830:	e88d0031 	stmia	sp, {r0, r4, r5}
    8834:	e3a04006 	mov	r4, #6	; 0x6
    8838:	e1a0500d 	mov	r5, sp
    883c:	e1a00004 	mov	r0, r4
    8840:	e1a0100d 	mov	r1, sp
    8844:	ef123456 	svc	0x00123456
    8848:	e1a04000 	mov	r4, r0
    884c:	e1a00004 	mov	r0, r4
    8850:	e28dd00c 	add	sp, sp, #12	; 0xc
    8854:	e8bd8030 	ldmia	sp!, {r4, r5, pc}

00008858 <_read>:
    8858:	e92d40f0 	stmdb	sp!, {r4, r5, r6, r7, lr}
    885c:	e1a06002 	mov	r6, r2
    8860:	e1a05001 	mov	r5, r1
    8864:	e1a04000 	mov	r4, r0
    8868:	ebffff4e 	bl	85a8 <remap_handle>
    886c:	ebfffef9 	bl	8458 <findslot>
    8870:	e1a01005 	mov	r1, r5
    8874:	e1a07000 	mov	r7, r0
    8878:	e1a02006 	mov	r2, r6
    887c:	e1a00004 	mov	r0, r4
    8880:	ebffffe5 	bl	881c <_swiread>
    8884:	e2501000 	subs	r1, r0, #0	; 0x0
    8888:	e3e00000 	mvn	r0, #0	; 0x0
    888c:	ba000008 	blt	88b4 <_read+0x5c>
    8890:	e59f3024 	ldr	r3, [pc, #36]	; 88bc <.text+0x89c>
    8894:	e3570014 	cmp	r7, #20	; 0x14
    8898:	e0832187 	add	r2, r3, r7, lsl #3
    889c:	e0610006 	rsb	r0, r1, r6
    88a0:	08bd80f0 	ldmeqia	sp!, {r4, r5, r6, r7, pc}
    88a4:	e5923004 	ldr	r3, [r2, #4]
    88a8:	e0833000 	add	r3, r3, r0
    88ac:	e5823004 	str	r3, [r2, #4]
    88b0:	e8bd80f0 	ldmia	sp!, {r4, r5, r6, r7, pc}
    88b4:	e8bd40f0 	ldmia	sp!, {r4, r5, r6, r7, lr}
    88b8:	eaffff1e 	b	8538 <error>
    88bc:	00011454 	andeq	r1, r1, r4, asr r4

000088c0 <_swiopen>:
    88c0:	e92d40f0 	stmdb	sp!, {r4, r5, r6, r7, lr}
    88c4:	e1a07000 	mov	r7, r0
    88c8:	e24dd00c 	sub	sp, sp, #12	; 0xc
    88cc:	e3e00000 	mvn	r0, #0	; 0x0
    88d0:	e1a05001 	mov	r5, r1
    88d4:	ebfffedf 	bl	8458 <findslot>
    88d8:	e3500014 	cmp	r0, #20	; 0x14
    88dc:	e1a06000 	mov	r6, r0
    88e0:	03e00000 	mvneq	r0, #0	; 0x0
    88e4:	0a000019 	beq	8950 <_swiopen+0x90>
    88e8:	e2054002 	and	r4, r5, #2	; 0x2
    88ec:	e3150c02 	tst	r5, #512	; 0x200
    88f0:	13844004 	orrne	r4, r4, #4	; 0x4
    88f4:	e3150b01 	tst	r5, #1024	; 0x400
    88f8:	13844004 	orrne	r4, r4, #4	; 0x4
    88fc:	e3150008 	tst	r5, #8	; 0x8
    8900:	13c43004 	bicne	r3, r4, #4	; 0x4
    8904:	e1a00007 	mov	r0, r7
    8908:	13834008 	orrne	r4, r3, #8	; 0x8
    890c:	e58d7000 	str	r7, [sp]
    8910:	eb001b7f 	bl	f714 <strlen>
    8914:	e3a05001 	mov	r5, #1	; 0x1
    8918:	e58d4004 	str	r4, [sp, #4]
    891c:	e58d0008 	str	r0, [sp, #8]
    8920:	e1a00005 	mov	r0, r5
    8924:	e1a0100d 	mov	r1, sp
    8928:	ef123456 	svc	0x00123456
    892c:	e1a04000 	mov	r4, r0
    8930:	e3540000 	cmp	r4, #0	; 0x0
    8934:	ba000007 	blt	8958 <_swiopen+0x98>
    8938:	e59f1024 	ldr	r1, [pc, #36]	; 8964 <.text+0x944>
    893c:	e3a03000 	mov	r3, #0	; 0x0
    8940:	e0812186 	add	r2, r1, r6, lsl #3
    8944:	e5823004 	str	r3, [r2, #4]
    8948:	e7814186 	str	r4, [r1, r6, lsl #3]
    894c:	e2840020 	add	r0, r4, #32	; 0x20
    8950:	e28dd00c 	add	sp, sp, #12	; 0xc
    8954:	e8bd80f0 	ldmia	sp!, {r4, r5, r6, r7, pc}
    8958:	e1a00004 	mov	r0, r4
    895c:	ebfffef5 	bl	8538 <error>
    8960:	eafffffa 	b	8950 <_swiopen+0x90>
    8964:	00011454 	andeq	r1, r1, r4, asr r4

00008968 <_open>:
    8968:	e92d000e 	stmdb	sp!, {r1, r2, r3}
    896c:	e52de004 	str	lr, [sp, #-4]!
    8970:	e59d1004 	ldr	r1, [sp, #4]
    8974:	ebffffd1 	bl	88c0 <_swiopen>
    8978:	ebfffefb 	bl	856c <wrap>
    897c:	e49de004 	ldr	lr, [sp], #4
    8980:	e28dd00c 	add	sp, sp, #12	; 0xc
    8984:	e12fff1e 	bx	lr

00008988 <_stat>:
    8988:	e92d4030 	stmdb	sp!, {r4, r5, lr}
    898c:	e1a04001 	mov	r4, r1
    8990:	e3a01000 	mov	r1, #0	; 0x0
    8994:	ebfffff3 	bl	8968 <_open>
    8998:	e2505000 	subs	r5, r0, #0	; 0x0
    899c:	e3a01000 	mov	r1, #0	; 0x0
    89a0:	e3a0203c 	mov	r2, #60	; 0x3c
    89a4:	e1a00004 	mov	r0, r4
    89a8:	e3e03000 	mvn	r3, #0	; 0x0
    89ac:	ba000007 	blt	89d0 <_stat+0x48>
    89b0:	ebfffe65 	bl	834c <memset>
    89b4:	e3a03b01 	mov	r3, #1024	; 0x400
    89b8:	e3a02c81 	mov	r2, #33024	; 0x8100
    89bc:	e584302c 	str	r3, [r4, #44]
    89c0:	e5842004 	str	r2, [r4, #4]
    89c4:	e1a00005 	mov	r0, r5
    89c8:	ebffff15 	bl	8624 <_swiclose>
    89cc:	e3a03000 	mov	r3, #0	; 0x0
    89d0:	e1a00003 	mov	r0, r3
    89d4:	e8bd8030 	ldmia	sp!, {r4, r5, pc}

000089d8 <initialise_monitor_handles>:
    89d8:	e92d45f0 	stmdb	sp!, {r4, r5, r6, r7, r8, sl, lr}
    89dc:	e59f709c 	ldr	r7, [pc, #156]	; 8a80 <.text+0xa60>
    89e0:	e24dd00c 	sub	sp, sp, #12	; 0xc
    89e4:	e3a08003 	mov	r8, #3	; 0x3
    89e8:	e3a03000 	mov	r3, #0	; 0x0
    89ec:	e58d7000 	str	r7, [sp]
    89f0:	e3a06001 	mov	r6, #1	; 0x1
    89f4:	e58d8008 	str	r8, [sp, #8]
    89f8:	e1a0500d 	mov	r5, sp
    89fc:	e58d3004 	str	r3, [sp, #4]
    8a00:	e1a00006 	mov	r0, r6
    8a04:	e1a0100d 	mov	r1, sp
    8a08:	ef123456 	svc	0x00123456
    8a0c:	e1a04000 	mov	r4, r0
    8a10:	e59fa06c 	ldr	sl, [pc, #108]	; 8a84 <.text+0xa64>
    8a14:	e58a4000 	str	r4, [sl]
    8a18:	e3a04004 	mov	r4, #4	; 0x4
    8a1c:	e58d7000 	str	r7, [sp]
    8a20:	e58d8008 	str	r8, [sp, #8]
    8a24:	e58d4004 	str	r4, [sp, #4]
    8a28:	e1a00006 	mov	r0, r6
    8a2c:	e1a0100d 	mov	r1, sp
    8a30:	ef123456 	svc	0x00123456
    8a34:	e1a04000 	mov	r4, r0
    8a38:	e59f3048 	ldr	r3, [pc, #72]	; 8a88 <.text+0xa68>
    8a3c:	e59f2048 	ldr	r2, [pc, #72]	; 8a8c <.text+0xa6c>
    8a40:	e59f0048 	ldr	r0, [pc, #72]	; 8a90 <.text+0xa70>
    8a44:	e5834000 	str	r4, [r3]
    8a48:	e5824000 	str	r4, [r2]
    8a4c:	e3e03000 	mvn	r3, #0	; 0x0
    8a50:	e28020a0 	add	r2, r0, #160	; 0xa0
    8a54:	e4803008 	str	r3, [r0], #8
    8a58:	e1500002 	cmp	r0, r2
    8a5c:	1afffffc 	bne	8a54 <initialise_monitor_handles+0x7c>
    8a60:	e59a3000 	ldr	r3, [sl]
    8a64:	e24020a0 	sub	r2, r0, #160	; 0xa0
    8a68:	e3a01000 	mov	r1, #0	; 0x0
    8a6c:	e50030a0 	str	r3, [r0, #-160]
    8a70:	e582100c 	str	r1, [r2, #12]
    8a74:	e9820012 	stmib	r2, {r1, r4}
    8a78:	e28dd00c 	add	sp, sp, #12	; 0xc
    8a7c:	e8bd85f0 	ldmia	sp!, {r4, r5, r6, r7, r8, sl, pc}
    8a80:	00010780 	andeq	r0, r1, r0, lsl #15
    8a84:	00011448 	andeq	r1, r1, r8, asr #8
    8a88:	00011450 	andeq	r1, r1, r0, asr r4
    8a8c:	0001144c 	andeq	r1, r1, ip, asr #8
    8a90:	00011454 	andeq	r1, r1, r4, asr r4

00008a94 <_times>:
    8a94:	e92d4070 	stmdb	sp!, {r4, r5, r6, lr}
    8a98:	e1a05000 	mov	r5, r0
    8a9c:	e3a04010 	mov	r4, #16	; 0x10
    8aa0:	e3a06000 	mov	r6, #0	; 0x0
    8aa4:	e1a00004 	mov	r0, r4
    8aa8:	e1a01006 	mov	r1, r6
    8aac:	ef123456 	svc	0x00123456
    8ab0:	e1a04000 	mov	r4, r0
    8ab4:	e1550006 	cmp	r5, r6
    8ab8:	e1a00004 	mov	r0, r4
    8abc:	1585600c 	strne	r6, [r5, #12]
    8ac0:	15854000 	strne	r4, [r5]
    8ac4:	15856004 	strne	r6, [r5, #4]
    8ac8:	15856008 	strne	r6, [r5, #8]
    8acc:	e8bd8070 	ldmia	sp!, {r4, r5, r6, pc}

00008ad0 <_gettimeofday>:
    8ad0:	e92d40f0 	stmdb	sp!, {r4, r5, r6, r7, lr}
    8ad4:	e2507000 	subs	r7, r0, #0	; 0x0
    8ad8:	e1a06001 	mov	r6, r1
    8adc:	0a000007 	beq	8b00 <_gettimeofday+0x30>
    8ae0:	e3a05011 	mov	r5, #17	; 0x11
    8ae4:	e3a04000 	mov	r4, #0	; 0x0
    8ae8:	e1a00005 	mov	r0, r5
    8aec:	e1a01004 	mov	r1, r4
    8af0:	ef123456 	svc	0x00123456
    8af4:	e1a05000 	mov	r5, r0
    8af8:	e5874004 	str	r4, [r7, #4]
    8afc:	e5875000 	str	r5, [r7]
    8b00:	e3a03000 	mov	r3, #0	; 0x0
    8b04:	e1560003 	cmp	r6, r3
    8b08:	e3a00000 	mov	r0, #0	; 0x0
    8b0c:	15863004 	strne	r3, [r6, #4]
    8b10:	15863000 	strne	r3, [r6]
    8b14:	e8bd80f0 	ldmia	sp!, {r4, r5, r6, r7, pc}

00008b18 <_kill>:
    8b18:	e92d4030 	stmdb	sp!, {r4, r5, lr}
    8b1c:	e3a05802 	mov	r5, #131072	; 0x20000
    8b20:	e2855026 	add	r5, r5, #38	; 0x26
    8b24:	e3a04018 	mov	r4, #24	; 0x18
    8b28:	e1a00004 	mov	r0, r4
    8b2c:	e1a01005 	mov	r1, r5
    8b30:	ef123456 	svc	0x00123456
    8b34:	e1a04000 	mov	r4, r0
    8b38:	e1a00004 	mov	r0, r4
    8b3c:	e8bd8030 	ldmia	sp!, {r4, r5, pc}

00008b40 <_exit>:
    8b40:	e3a05802 	mov	r5, #131072	; 0x20000
    8b44:	e2855026 	add	r5, r5, #38	; 0x26
    8b48:	e3a04018 	mov	r4, #24	; 0x18
    8b4c:	e1a00004 	mov	r0, r4
    8b50:	e1a01005 	mov	r1, r5
    8b54:	ef123456 	svc	0x00123456
    8b58:	e1a04000 	mov	r4, r0
    8b5c:	e12fff1e 	bx	lr

00008b60 <__sprint>:
    8b60:	e5913008 	ldr	r3, [r1, #8]
    8b64:	e3530000 	cmp	r3, #0	; 0x0
    8b68:	e92d4010 	stmdb	sp!, {r4, lr}
    8b6c:	e1a02003 	mov	r2, r3
    8b70:	e1a04001 	mov	r4, r1
    8b74:	05813004 	streq	r3, [r1, #4]
    8b78:	1a000001 	bne	8b84 <__sprint+0x24>
    8b7c:	e1a00002 	mov	r0, r2
    8b80:	e8bd8010 	ldmia	sp!, {r4, pc}
    8b84:	eb001179 	bl	d170 <__sfvwrite>
    8b88:	e1a02000 	mov	r2, r0
    8b8c:	e3a03000 	mov	r3, #0	; 0x0
    8b90:	e1a00002 	mov	r0, r2
    8b94:	e5843004 	str	r3, [r4, #4]
    8b98:	e5843008 	str	r3, [r4, #8]
    8b9c:	e8bd8010 	ldmia	sp!, {r4, pc}

00008ba0 <_vfprintf_r>:
    8ba0:	e92d4ff0 	stmdb	sp!, {r4, r5, r6, r7, r8, r9, sl, fp, lr}
    8ba4:	e24dde6b 	sub	sp, sp, #1712	; 0x6b0
    8ba8:	e1a0a001 	mov	sl, r1
    8bac:	e58d0010 	str	r0, [sp, #16]
    8bb0:	e1a04002 	mov	r4, r2
    8bb4:	e1a09003 	mov	r9, r3
    8bb8:	eb0012b4 	bl	d690 <localeconv>
    8bbc:	e59d1010 	ldr	r1, [sp, #16]
    8bc0:	e5900000 	ldr	r0, [r0]
    8bc4:	e3510000 	cmp	r1, #0	; 0x0
    8bc8:	e58d0028 	str	r0, [sp, #40]
    8bcc:	0a000002 	beq	8bdc <_vfprintf_r+0x3c>
    8bd0:	e5913038 	ldr	r3, [r1, #56]
    8bd4:	e3530000 	cmp	r3, #0	; 0x0
    8bd8:	0a0000cf 	beq	8f1c <.text+0xefc>
    8bdc:	e1dac0bc 	ldrh	ip, [sl, #12]
    8be0:	e31c0008 	tst	ip, #8	; 0x8
    8be4:	0a0000cf 	beq	8f28 <.text+0xf08>
    8be8:	e59a3010 	ldr	r3, [sl, #16]
    8bec:	e3530000 	cmp	r3, #0	; 0x0
    8bf0:	0a0000cc 	beq	8f28 <.text+0xf08>
    8bf4:	e20c301a 	and	r3, ip, #26	; 0x1a
    8bf8:	e353000a 	cmp	r3, #10	; 0xa
    8bfc:	1a00002d 	bne	8cb8 <_vfprintf_r+0x118>
    8c00:	e1da30fe 	ldrsh	r3, [sl, #14]
    8c04:	e3530000 	cmp	r3, #0	; 0x0
    8c08:	ba00002a 	blt	8cb8 <_vfprintf_r+0x118>
    8c0c:	e3ccc002 	bic	ip, ip, #2	; 0x2
    8c10:	e28d8c05 	add	r8, sp, #1280	; 0x500
    8c14:	e1c8ccb0 	strh	ip, [r8, #192]
    8c18:	e3a0c000 	mov	ip, #0	; 0x0
    8c1c:	e58dc5cc 	str	ip, [sp, #1484]
    8c20:	e28d7e5b 	add	r7, sp, #1456	; 0x5b0
    8c24:	e1dac0be 	ldrh	ip, [sl, #14]
    8c28:	e59a501c 	ldr	r5, [sl, #28]
    8c2c:	e59a6024 	ldr	r6, [sl, #36]
    8c30:	e28de060 	add	lr, sp, #96	; 0x60
    8c34:	e2877004 	add	r7, r7, #4	; 0x4
    8c38:	e24ee008 	sub	lr, lr, #8	; 0x8
    8c3c:	e1a02004 	mov	r2, r4
    8c40:	e59d0010 	ldr	r0, [sp, #16]
    8c44:	e3a04b01 	mov	r4, #1024	; 0x400
    8c48:	e1a03009 	mov	r3, r9
    8c4c:	e1a01007 	mov	r1, r7
    8c50:	e1c8ccb2 	strh	ip, [r8, #194]
    8c54:	e58d55d0 	str	r5, [sp, #1488]
    8c58:	e58d65d8 	str	r6, [sp, #1496]
    8c5c:	e58de5c4 	str	lr, [sp, #1476]
    8c60:	e58d45c8 	str	r4, [sp, #1480]
    8c64:	e58de5b4 	str	lr, [sp, #1460]
    8c68:	e58d45bc 	str	r4, [sp, #1468]
    8c6c:	ebffffcb 	bl	8ba0 <_vfprintf_r>
    8c70:	e3500000 	cmp	r0, #0	; 0x0
    8c74:	e58d0020 	str	r0, [sp, #32]
    8c78:	ba000005 	blt	8c94 <_vfprintf_r+0xf4>
    8c7c:	e1a00007 	mov	r0, r7
    8c80:	eb000f80 	bl	ca88 <fflush>
    8c84:	e59d1020 	ldr	r1, [sp, #32]
    8c88:	e3500000 	cmp	r0, #0	; 0x0
    8c8c:	13e01000 	mvnne	r1, #0	; 0x0
    8c90:	e58d1020 	str	r1, [sp, #32]
    8c94:	e28d2c05 	add	r2, sp, #1280	; 0x500
    8c98:	e1d23cb0 	ldrh	r3, [r2, #192]
    8c9c:	e3130040 	tst	r3, #64	; 0x40
    8ca0:	11da30bc 	ldrneh	r3, [sl, #12]
    8ca4:	13833040 	orrne	r3, r3, #64	; 0x40
    8ca8:	11ca30bc 	strneh	r3, [sl, #12]
    8cac:	e59d0020 	ldr	r0, [sp, #32]
    8cb0:	e28dde6b 	add	sp, sp, #1712	; 0x6b0
    8cb4:	e8bd8ff0 	ldmia	sp!, {r4, r5, r6, r7, r8, r9, sl, fp, pc}
    8cb8:	e58d4018 	str	r4, [sp, #24]
    8cbc:	e3a03000 	mov	r3, #0	; 0x0
    8cc0:	e3a04000 	mov	r4, #0	; 0x0
    8cc4:	e3a06000 	mov	r6, #0	; 0x0
    8cc8:	e28d8e61 	add	r8, sp, #1552	; 0x610
    8ccc:	e58d3048 	str	r3, [sp, #72]
    8cd0:	e58d404c 	str	r4, [sp, #76]
    8cd4:	e58d6020 	str	r6, [sp, #32]
    8cd8:	e58d6030 	str	r6, [sp, #48]
    8cdc:	e58d6040 	str	r6, [sp, #64]
    8ce0:	e58d6044 	str	r6, [sp, #68]
    8ce4:	e58d8678 	str	r8, [sp, #1656]
    8ce8:	e58d6680 	str	r6, [sp, #1664]
    8cec:	e58d667c 	str	r6, [sp, #1660]
    8cf0:	e1a05006 	mov	r5, r6
    8cf4:	e59d4018 	ldr	r4, [sp, #24]
    8cf8:	e5d43000 	ldrb	r3, [r4]
    8cfc:	e3530000 	cmp	r3, #0	; 0x0
    8d00:	13530025 	cmpne	r3, #37	; 0x25
    8d04:	0a000017 	beq	8d68 <_vfprintf_r+0x1c8>
    8d08:	e59d2018 	ldr	r2, [sp, #24]
    8d0c:	e5f23001 	ldrb	r3, [r2, #1]!
    8d10:	e3530000 	cmp	r3, #0	; 0x0
    8d14:	13530025 	cmpne	r3, #37	; 0x25
    8d18:	1afffffb 	bne	8d0c <_vfprintf_r+0x16c>
    8d1c:	e59d5018 	ldr	r5, [sp, #24]
    8d20:	e0527005 	subs	r7, r2, r5
    8d24:	e1a04002 	mov	r4, r2
    8d28:	0a00000e 	beq	8d68 <_vfprintf_r+0x1c8>
    8d2c:	e59d567c 	ldr	r5, [sp, #1660]
    8d30:	e59d6680 	ldr	r6, [sp, #1664]
    8d34:	e2855001 	add	r5, r5, #1	; 0x1
    8d38:	e59dc018 	ldr	ip, [sp, #24]
    8d3c:	e3550007 	cmp	r5, #7	; 0x7
    8d40:	e0866007 	add	r6, r6, r7
    8d44:	e588c000 	str	ip, [r8]
    8d48:	e5887004 	str	r7, [r8, #4]
    8d4c:	e58d6680 	str	r6, [sp, #1664]
    8d50:	e58d567c 	str	r5, [sp, #1660]
    8d54:	d2888008 	addle	r8, r8, #8	; 0x8
    8d58:	ca00041d 	bgt	9dd4 <.text+0x1db4>
    8d5c:	e59d1020 	ldr	r1, [sp, #32]
    8d60:	e0811007 	add	r1, r1, r7
    8d64:	e58d1020 	str	r1, [sp, #32]
    8d68:	e5d43000 	ldrb	r3, [r4]
    8d6c:	e3530000 	cmp	r3, #0	; 0x0
    8d70:	0a0006ef 	beq	a934 <.text+0x2914>
    8d74:	e3a03000 	mov	r3, #0	; 0x0
    8d78:	e5cd36af 	strb	r3, [sp, #1711]
    8d7c:	e58d3024 	str	r3, [sp, #36]
    8d80:	e3a02000 	mov	r2, #0	; 0x0
    8d84:	e5d43001 	ldrb	r3, [r4, #1]
    8d88:	e2844001 	add	r4, r4, #1	; 0x1
    8d8c:	e58d4018 	str	r4, [sp, #24]
    8d90:	e58d2054 	str	r2, [sp, #84]
    8d94:	e3e06000 	mvn	r6, #0	; 0x0
    8d98:	e59dc018 	ldr	ip, [sp, #24]
    8d9c:	e28cc001 	add	ip, ip, #1	; 0x1
    8da0:	e58dc018 	str	ip, [sp, #24]
    8da4:	e1a07003 	mov	r7, r3
    8da8:	e2473020 	sub	r3, r7, #32	; 0x20
    8dac:	e3530058 	cmp	r3, #88	; 0x58
    8db0:	979ff103 	ldrls	pc, [pc, r3, lsl #2]
    8db4:	ea000198 	b	941c <.text+0x13fc>
    8db8:	00009234 	andeq	r9, r0, r4, lsr r2
    8dbc:	0000941c 	andeq	r9, r0, ip, lsl r4
    8dc0:	0000941c 	andeq	r9, r0, ip, lsl r4
    8dc4:	0000924c 	andeq	r9, r0, ip, asr #4
    8dc8:	0000941c 	andeq	r9, r0, ip, lsl r4
    8dcc:	0000941c 	andeq	r9, r0, ip, lsl r4
    8dd0:	0000941c 	andeq	r9, r0, ip, lsl r4
    8dd4:	0000941c 	andeq	r9, r0, ip, lsl r4
    8dd8:	0000941c 	andeq	r9, r0, ip, lsl r4
    8ddc:	0000941c 	andeq	r9, r0, ip, lsl r4
    8de0:	00009264 	andeq	r9, r0, r4, ror #4
    8de4:	00009288 	andeq	r9, r0, r8, lsl #5
    8de8:	0000941c 	andeq	r9, r0, ip, lsl r4
    8dec:	0000921c 	andeq	r9, r0, ip, lsl r2
    8df0:	00009948 	andeq	r9, r0, r8, asr #18
    8df4:	0000941c 	andeq	r9, r0, ip, lsl r4
    8df8:	00009900 	andeq	r9, r0, r0, lsl #18
    8dfc:	00009918 	andeq	r9, r0, r8, lsl r9
    8e00:	00009918 	andeq	r9, r0, r8, lsl r9
    8e04:	00009918 	andeq	r9, r0, r8, lsl r9
    8e08:	00009918 	andeq	r9, r0, r8, lsl r9
    8e0c:	00009918 	andeq	r9, r0, r8, lsl r9
    8e10:	00009918 	andeq	r9, r0, r8, lsl r9
    8e14:	00009918 	andeq	r9, r0, r8, lsl r9
    8e18:	00009918 	andeq	r9, r0, r8, lsl r9
    8e1c:	00009918 	andeq	r9, r0, r8, lsl r9
    8e20:	0000941c 	andeq	r9, r0, ip, lsl r4
    8e24:	0000941c 	andeq	r9, r0, ip, lsl r4
    8e28:	0000941c 	andeq	r9, r0, ip, lsl r4
    8e2c:	0000941c 	andeq	r9, r0, ip, lsl r4
    8e30:	0000941c 	andeq	r9, r0, ip, lsl r4
    8e34:	0000941c 	andeq	r9, r0, ip, lsl r4
    8e38:	0000941c 	andeq	r9, r0, ip, lsl r4
    8e3c:	0000941c 	andeq	r9, r0, ip, lsl r4
    8e40:	0000941c 	andeq	r9, r0, ip, lsl r4
    8e44:	000092f0 	streqd	r9, [r0], -r0
    8e48:	00008f88 	andeq	r8, r0, r8, lsl #31
    8e4c:	0000936c 	andeq	r9, r0, ip, ror #6
    8e50:	0000936c 	andeq	r9, r0, ip, ror #6
    8e54:	0000936c 	andeq	r9, r0, ip, ror #6
    8e58:	0000941c 	andeq	r9, r0, ip, lsl r4
    8e5c:	0000941c 	andeq	r9, r0, ip, lsl r4
    8e60:	0000941c 	andeq	r9, r0, ip, lsl r4
    8e64:	0000941c 	andeq	r9, r0, ip, lsl r4
    8e68:	000098e8 	andeq	r9, r0, r8, ror #17
    8e6c:	0000941c 	andeq	r9, r0, ip, lsl r4
    8e70:	0000941c 	andeq	r9, r0, ip, lsl r4
    8e74:	00009020 	andeq	r9, r0, r0, lsr #32
    8e78:	0000941c 	andeq	r9, r0, ip, lsl r4
    8e7c:	0000941c 	andeq	r9, r0, ip, lsl r4
    8e80:	0000941c 	andeq	r9, r0, ip, lsl r4
    8e84:	00009740 	andeq	r9, r0, r0, asr #14
    8e88:	0000941c 	andeq	r9, r0, ip, lsl r4
    8e8c:	000091d8 	ldreqd	r9, [r0], -r8
    8e90:	0000941c 	andeq	r9, r0, ip, lsl r4
    8e94:	0000941c 	andeq	r9, r0, ip, lsl r4
    8e98:	0000929c 	muleq	r0, ip, r2
    8e9c:	0000941c 	andeq	r9, r0, ip, lsl r4
    8ea0:	0000941c 	andeq	r9, r0, ip, lsl r4
    8ea4:	0000941c 	andeq	r9, r0, ip, lsl r4
    8ea8:	0000941c 	andeq	r9, r0, ip, lsl r4
    8eac:	0000941c 	andeq	r9, r0, ip, lsl r4
    8eb0:	0000941c 	andeq	r9, r0, ip, lsl r4
    8eb4:	0000941c 	andeq	r9, r0, ip, lsl r4
    8eb8:	0000941c 	andeq	r9, r0, ip, lsl r4
    8ebc:	0000941c 	andeq	r9, r0, ip, lsl r4
    8ec0:	0000941c 	andeq	r9, r0, ip, lsl r4
    8ec4:	000092f0 	streqd	r9, [r0], -r0
    8ec8:	00008f94 	muleq	r0, r4, pc
    8ecc:	0000936c 	andeq	r9, r0, ip, ror #6
    8ed0:	0000936c 	andeq	r9, r0, ip, ror #6
    8ed4:	0000936c 	andeq	r9, r0, ip, ror #6
    8ed8:	00009404 	andeq	r9, r0, r4, lsl #8
    8edc:	00008f94 	muleq	r0, r4, pc
    8ee0:	0000941c 	andeq	r9, r0, ip, lsl r4
    8ee4:	0000941c 	andeq	r9, r0, ip, lsl r4
    8ee8:	00009874 	andeq	r9, r0, r4, ror r8
    8eec:	0000941c 	andeq	r9, r0, ip, lsl r4
    8ef0:	000098a4 	andeq	r9, r0, r4, lsr #17
    8ef4:	0000902c 	andeq	r9, r0, ip, lsr #32
    8ef8:	000096fc 	streqd	r9, [r0], -ip
    8efc:	00009728 	andeq	r9, r0, r8, lsr #14
    8f00:	0000941c 	andeq	r9, r0, ip, lsl r4
    8f04:	00009740 	andeq	r9, r0, r0, asr #14
    8f08:	0000941c 	andeq	r9, r0, ip, lsl r4
    8f0c:	000091e4 	andeq	r9, r0, r4, ror #3
    8f10:	0000941c 	andeq	r9, r0, ip, lsl r4
    8f14:	0000941c 	andeq	r9, r0, ip, lsl r4
    8f18:	000096f0 	streqd	r9, [r0], -r0
    8f1c:	e1a00001 	mov	r0, r1
    8f20:	eb000f2b 	bl	cbd4 <__sinit>
    8f24:	eaffff2c 	b	8bdc <_vfprintf_r+0x3c>
    8f28:	e1a0000a 	mov	r0, sl
    8f2c:	eb000873 	bl	b100 <__swsetup>
    8f30:	e3500000 	cmp	r0, #0	; 0x0
    8f34:	1a000010 	bne	8f7c <.text+0xf5c>
    8f38:	e1dac0bc 	ldrh	ip, [sl, #12]
    8f3c:	eaffff2c 	b	8bf4 <_vfprintf_r+0x54>
    8f40:	e28d1e67 	add	r1, sp, #1648	; 0x670
    8f44:	e1a0000a 	mov	r0, sl
    8f48:	e2811008 	add	r1, r1, #8	; 0x8
    8f4c:	ebffff03 	bl	8b60 <__sprint>
    8f50:	e3500000 	cmp	r0, #0	; 0x0
    8f54:	0a0001d8 	beq	96bc <.text+0x169c>
    8f58:	e59d1044 	ldr	r1, [sp, #68]
    8f5c:	e3510000 	cmp	r1, #0	; 0x0
    8f60:	0a000002 	beq	8f70 <.text+0xf50>
    8f64:	e59d0010 	ldr	r0, [sp, #16]
    8f68:	e59d1044 	ldr	r1, [sp, #68]
    8f6c:	eb000fd7 	bl	ced0 <_free_r>
    8f70:	e1da30bc 	ldrh	r3, [sl, #12]
    8f74:	e3130040 	tst	r3, #64	; 0x40
    8f78:	0affff4b 	beq	8cac <_vfprintf_r+0x10c>
    8f7c:	e3e02000 	mvn	r2, #0	; 0x0
    8f80:	e58d2020 	str	r2, [sp, #32]
    8f84:	eaffff48 	b	8cac <_vfprintf_r+0x10c>
    8f88:	e59d3054 	ldr	r3, [sp, #84]
    8f8c:	e3833010 	orr	r3, r3, #16	; 0x10
    8f90:	e58d3054 	str	r3, [sp, #84]
    8f94:	e59d4054 	ldr	r4, [sp, #84]
    8f98:	e3140010 	tst	r4, #16	; 0x10
    8f9c:	1a000002 	bne	8fac <.text+0xf8c>
    8fa0:	e59d5054 	ldr	r5, [sp, #84]
    8fa4:	e3150040 	tst	r5, #64	; 0x40
    8fa8:	1a000414 	bne	a000 <.text+0x1fe0>
    8fac:	e5991000 	ldr	r1, [r9]
    8fb0:	e2899004 	add	r9, r9, #4	; 0x4
    8fb4:	e58d9050 	str	r9, [sp, #80]
    8fb8:	e3510000 	cmp	r1, #0	; 0x0
    8fbc:	b3a0302d 	movlt	r3, #45	; 0x2d
    8fc0:	a3a02001 	movge	r2, #1	; 0x1
    8fc4:	b2611000 	rsblt	r1, r1, #0	; 0x0
    8fc8:	b3a02001 	movlt	r2, #1	; 0x1
    8fcc:	b5cd36af 	strltb	r3, [sp, #1711]
    8fd0:	e3560000 	cmp	r6, #0	; 0x0
    8fd4:	aa00001f 	bge	9058 <.text+0x1038>
    8fd8:	e3520001 	cmp	r2, #1	; 0x1
    8fdc:	0a000384 	beq	9df4 <.text+0x1dd4>
    8fe0:	328d0e5b 	addcc	r0, sp, #1456	; 0x5b0
    8fe4:	32800004 	addcc	r0, r0, #4	; 0x4
    8fe8:	3a0002c1 	bcc	9af4 <.text+0x1ad4>
    8fec:	e3520002 	cmp	r2, #2	; 0x2
    8ff0:	0a00047e 	beq	a1f0 <.text+0x21d0>
    8ff4:	e59f0fcc 	ldr	r0, [pc, #4044]	; 9fc8 <.text+0x1fa8>
    8ff8:	eb0019c5 	bl	f714 <strlen>
    8ffc:	e59fcfc4 	ldr	ip, [pc, #4036]	; 9fc8 <.text+0x1fa8>
    9000:	e1560000 	cmp	r6, r0
    9004:	a1a01006 	movge	r1, r6
    9008:	b1a01000 	movlt	r1, r0
    900c:	e1a0b000 	mov	fp, r0
    9010:	e58dc01c 	str	ip, [sp, #28]
    9014:	e58d103c 	str	r1, [sp, #60]
    9018:	e58d6038 	str	r6, [sp, #56]
    901c:	ea00002c 	b	90d4 <.text+0x10b4>
    9020:	e59d2054 	ldr	r2, [sp, #84]
    9024:	e3822010 	orr	r2, r2, #16	; 0x10
    9028:	e58d2054 	str	r2, [sp, #84]
    902c:	e59d3054 	ldr	r3, [sp, #84]
    9030:	e2132010 	ands	r2, r3, #16	; 0x10
    9034:	0a0003a4 	beq	9ecc <.text+0x1eac>
    9038:	e5991000 	ldr	r1, [r9]
    903c:	e2899004 	add	r9, r9, #4	; 0x4
    9040:	e58d9050 	str	r9, [sp, #80]
    9044:	e3a02000 	mov	r2, #0	; 0x0
    9048:	e3a03000 	mov	r3, #0	; 0x0
    904c:	e3560000 	cmp	r6, #0	; 0x0
    9050:	e5cd36af 	strb	r3, [sp, #1711]
    9054:	baffffdf 	blt	8fd8 <.text+0xfb8>
    9058:	e59d3054 	ldr	r3, [sp, #84]
    905c:	e3560000 	cmp	r6, #0	; 0x0
    9060:	03510000 	cmpeq	r1, #0	; 0x0
    9064:	e3c33080 	bic	r3, r3, #128	; 0x80
    9068:	e58d3054 	str	r3, [sp, #84]
    906c:	1affffd9 	bne	8fd8 <.text+0xfb8>
    9070:	e3520000 	cmp	r2, #0	; 0x0
    9074:	128d2e5b 	addne	r2, sp, #1456	; 0x5b0
    9078:	12822004 	addne	r2, r2, #4	; 0x4
    907c:	158d201c 	strne	r2, [sp, #28]
    9080:	1a000009 	bne	90ac <.text+0x108c>
    9084:	e59d3054 	ldr	r3, [sp, #84]
    9088:	e3130001 	tst	r3, #1	; 0x1
    908c:	028d4e5b 	addeq	r4, sp, #1456	; 0x5b0
    9090:	128d5e5b 	addne	r5, sp, #1456	; 0x5b0
    9094:	02844004 	addeq	r4, r4, #4	; 0x4
    9098:	13a03030 	movne	r3, #48	; 0x30
    909c:	12855003 	addne	r5, r5, #3	; 0x3
    90a0:	058d401c 	streq	r4, [sp, #28]
    90a4:	15cd35b3 	strneb	r3, [sp, #1459]
    90a8:	158d501c 	strne	r5, [sp, #28]
    90ac:	e28d5e45 	add	r5, sp, #1104	; 0x450
    90b0:	e59dc01c 	ldr	ip, [sp, #28]
    90b4:	e2855008 	add	r5, r5, #8	; 0x8
    90b8:	e06c3005 	rsb	r3, ip, r5
    90bc:	e283bf57 	add	fp, r3, #348	; 0x15c
    90c0:	e156000b 	cmp	r6, fp
    90c4:	a1a01006 	movge	r1, r6
    90c8:	b1a0100b 	movlt	r1, fp
    90cc:	e58d103c 	str	r1, [sp, #60]
    90d0:	e58d6038 	str	r6, [sp, #56]
    90d4:	e5dd36af 	ldrb	r3, [sp, #1711]
    90d8:	e3530000 	cmp	r3, #0	; 0x0
    90dc:	0a0000dc 	beq	9454 <.text+0x1434>
    90e0:	e59d103c 	ldr	r1, [sp, #60]
    90e4:	e59d4054 	ldr	r4, [sp, #84]
    90e8:	e2811001 	add	r1, r1, #1	; 0x1
    90ec:	e2144084 	ands	r4, r4, #132	; 0x84
    90f0:	e58d103c 	str	r1, [sp, #60]
    90f4:	e58d4014 	str	r4, [sp, #20]
    90f8:	1a0000de 	bne	9478 <.text+0x1458>
    90fc:	e59d5024 	ldr	r5, [sp, #36]
    9100:	e59dc03c 	ldr	ip, [sp, #60]
    9104:	e06c4005 	rsb	r4, ip, r5
    9108:	e3540000 	cmp	r4, #0	; 0x0
    910c:	da0000d9 	ble	9478 <.text+0x1458>
    9110:	e3540010 	cmp	r4, #16	; 0x10
    9114:	da000484 	ble	a32c <.text+0x230c>
    9118:	e59d6680 	ldr	r6, [sp, #1664]
    911c:	e59d567c 	ldr	r5, [sp, #1660]
    9120:	e59f9ec8 	ldr	r9, [pc, #3784]	; 9ff0 <.text+0x1fd0>
    9124:	ea000002 	b	9134 <.text+0x1114>
    9128:	e2444010 	sub	r4, r4, #16	; 0x10
    912c:	e3540010 	cmp	r4, #16	; 0x10
    9130:	da000015 	ble	918c <.text+0x116c>
    9134:	e2855001 	add	r5, r5, #1	; 0x1
    9138:	e28d1e67 	add	r1, sp, #1648	; 0x670
    913c:	e2866010 	add	r6, r6, #16	; 0x10
    9140:	e3a03010 	mov	r3, #16	; 0x10
    9144:	e3550007 	cmp	r5, #7	; 0x7
    9148:	e5883004 	str	r3, [r8, #4]
    914c:	e5889000 	str	r9, [r8]
    9150:	e1a0000a 	mov	r0, sl
    9154:	e2811008 	add	r1, r1, #8	; 0x8
    9158:	e2888008 	add	r8, r8, #8	; 0x8
    915c:	e58d6680 	str	r6, [sp, #1664]
    9160:	e58d567c 	str	r5, [sp, #1660]
    9164:	daffffef 	ble	9128 <.text+0x1108>
    9168:	ebfffe7c 	bl	8b60 <__sprint>
    916c:	e3500000 	cmp	r0, #0	; 0x0
    9170:	1affff78 	bne	8f58 <.text+0xf38>
    9174:	e2444010 	sub	r4, r4, #16	; 0x10
    9178:	e3540010 	cmp	r4, #16	; 0x10
    917c:	e28d8e61 	add	r8, sp, #1552	; 0x610
    9180:	e59d6680 	ldr	r6, [sp, #1664]
    9184:	e59d567c 	ldr	r5, [sp, #1660]
    9188:	caffffe9 	bgt	9134 <.text+0x1114>
    918c:	e2855001 	add	r5, r5, #1	; 0x1
    9190:	e0866004 	add	r6, r6, r4
    9194:	e3550007 	cmp	r5, #7	; 0x7
    9198:	e5889000 	str	r9, [r8]
    919c:	e5884004 	str	r4, [r8, #4]
    91a0:	e58d6680 	str	r6, [sp, #1664]
    91a4:	e58d567c 	str	r5, [sp, #1660]
    91a8:	d2888008 	addle	r8, r8, #8	; 0x8
    91ac:	da0000b3 	ble	9480 <.text+0x1460>
    91b0:	e28d1e67 	add	r1, sp, #1648	; 0x670
    91b4:	e1a0000a 	mov	r0, sl
    91b8:	e2811008 	add	r1, r1, #8	; 0x8
    91bc:	ebfffe67 	bl	8b60 <__sprint>
    91c0:	e3500000 	cmp	r0, #0	; 0x0
    91c4:	1affff63 	bne	8f58 <.text+0xf38>
    91c8:	e59d6680 	ldr	r6, [sp, #1664]
    91cc:	e59d567c 	ldr	r5, [sp, #1660]
    91d0:	e28d8e61 	add	r8, sp, #1552	; 0x610
    91d4:	ea0000a9 	b	9480 <.text+0x1460>
    91d8:	e59d1054 	ldr	r1, [sp, #84]
    91dc:	e3811010 	orr	r1, r1, #16	; 0x10
    91e0:	e58d1054 	str	r1, [sp, #84]
    91e4:	e59d2054 	ldr	r2, [sp, #84]
    91e8:	e3120010 	tst	r2, #16	; 0x10
    91ec:	1a000002 	bne	91fc <.text+0x11dc>
    91f0:	e59d3054 	ldr	r3, [sp, #84]
    91f4:	e3130040 	tst	r3, #64	; 0x40
    91f8:	1a00036b 	bne	9fac <.text+0x1f8c>
    91fc:	e5991000 	ldr	r1, [r9]
    9200:	e3a02001 	mov	r2, #1	; 0x1
    9204:	e2899004 	add	r9, r9, #4	; 0x4
    9208:	e58d9050 	str	r9, [sp, #80]
    920c:	eaffff8d 	b	9048 <.text+0x1028>
    9210:	e26cc000 	rsb	ip, ip, #0	; 0x0
    9214:	e58dc024 	str	ip, [sp, #36]
    9218:	e1a09002 	mov	r9, r2
    921c:	e59d1018 	ldr	r1, [sp, #24]
    9220:	e59d2054 	ldr	r2, [sp, #84]
    9224:	e5d13000 	ldrb	r3, [r1]
    9228:	e3822004 	orr	r2, r2, #4	; 0x4
    922c:	e58d2054 	str	r2, [sp, #84]
    9230:	eafffed8 	b	8d98 <_vfprintf_r+0x1f8>
    9234:	e5dd36af 	ldrb	r3, [sp, #1711]
    9238:	e3530000 	cmp	r3, #0	; 0x0
    923c:	0a000355 	beq	9f98 <.text+0x1f78>
    9240:	e59d5018 	ldr	r5, [sp, #24]
    9244:	e5d53000 	ldrb	r3, [r5]
    9248:	eafffed2 	b	8d98 <_vfprintf_r+0x1f8>
    924c:	e59d4018 	ldr	r4, [sp, #24]
    9250:	e59d5054 	ldr	r5, [sp, #84]
    9254:	e5d43000 	ldrb	r3, [r4]
    9258:	e3855001 	orr	r5, r5, #1	; 0x1
    925c:	e58d5054 	str	r5, [sp, #84]
    9260:	eafffecc 	b	8d98 <_vfprintf_r+0x1f8>
    9264:	e599c000 	ldr	ip, [r9]
    9268:	e35c0000 	cmp	ip, #0	; 0x0
    926c:	e58dc024 	str	ip, [sp, #36]
    9270:	e2892004 	add	r2, r9, #4	; 0x4
    9274:	baffffe5 	blt	9210 <.text+0x11f0>
    9278:	e59d4018 	ldr	r4, [sp, #24]
    927c:	e5d43000 	ldrb	r3, [r4]
    9280:	e1a09002 	mov	r9, r2
    9284:	eafffec3 	b	8d98 <_vfprintf_r+0x1f8>
    9288:	e3a0302b 	mov	r3, #43	; 0x2b
    928c:	e5cd36af 	strb	r3, [sp, #1711]
    9290:	e59d4018 	ldr	r4, [sp, #24]
    9294:	e5d43000 	ldrb	r3, [r4]
    9298:	eafffebe 	b	8d98 <_vfprintf_r+0x1f8>
    929c:	e59f4d28 	ldr	r4, [pc, #3368]	; 9fcc <.text+0x1fac>
    92a0:	e58d4040 	str	r4, [sp, #64]
    92a4:	e59d5054 	ldr	r5, [sp, #84]
    92a8:	e3150010 	tst	r5, #16	; 0x10
    92ac:	1a000002 	bne	92bc <.text+0x129c>
    92b0:	e59dc054 	ldr	ip, [sp, #84]
    92b4:	e31c0040 	tst	ip, #64	; 0x40
    92b8:	1a000356 	bne	a018 <.text+0x1ff8>
    92bc:	e5991000 	ldr	r1, [r9]
    92c0:	e2899004 	add	r9, r9, #4	; 0x4
    92c4:	e58d9050 	str	r9, [sp, #80]
    92c8:	e59d3054 	ldr	r3, [sp, #84]
    92cc:	e3510000 	cmp	r1, #0	; 0x0
    92d0:	03a03000 	moveq	r3, #0	; 0x0
    92d4:	12033001 	andne	r3, r3, #1	; 0x1
    92d8:	e3530000 	cmp	r3, #0	; 0x0
    92dc:	159d2054 	ldrne	r2, [sp, #84]
    92e0:	13822002 	orrne	r2, r2, #2	; 0x2
    92e4:	158d2054 	strne	r2, [sp, #84]
    92e8:	e3a02002 	mov	r2, #2	; 0x2
    92ec:	eaffff55 	b	9048 <.text+0x1028>
    92f0:	e3570043 	cmp	r7, #67	; 0x43
    92f4:	0a000002 	beq	9304 <.text+0x12e4>
    92f8:	e59d1054 	ldr	r1, [sp, #84]
    92fc:	e3110010 	tst	r1, #16	; 0x10
    9300:	0a00037a 	beq	a0f0 <.text+0x20d0>
    9304:	e28d4d1a 	add	r4, sp, #1664	; 0x680
    9308:	e284400c 	add	r4, r4, #12	; 0xc
    930c:	e28d5e45 	add	r5, sp, #1104	; 0x450
    9310:	e3a01000 	mov	r1, #0	; 0x0
    9314:	e3a02008 	mov	r2, #8	; 0x8
    9318:	e1a00004 	mov	r0, r4
    931c:	e2855008 	add	r5, r5, #8	; 0x8
    9320:	ebfffc09 	bl	834c <memset>
    9324:	e1a03004 	mov	r3, r4
    9328:	e59d0010 	ldr	r0, [sp, #16]
    932c:	e1a01005 	mov	r1, r5
    9330:	e5992000 	ldr	r2, [r9]
    9334:	eb0005eb 	bl	aae8 <_wcrtomb_r>
    9338:	e3700001 	cmn	r0, #1	; 0x1
    933c:	e1a0b000 	mov	fp, r0
    9340:	0a000565 	beq	a8dc <.text+0x28bc>
    9344:	e2899004 	add	r9, r9, #4	; 0x4
    9348:	e58d9050 	str	r9, [sp, #80]
    934c:	e35b0000 	cmp	fp, #0	; 0x0
    9350:	a1a0200b 	movge	r2, fp
    9354:	b3a02000 	movlt	r2, #0	; 0x0
    9358:	e3a03000 	mov	r3, #0	; 0x0
    935c:	e58d203c 	str	r2, [sp, #60]
    9360:	e58d501c 	str	r5, [sp, #28]
    9364:	e5cd36af 	strb	r3, [sp, #1711]
    9368:	ea000037 	b	944c <.text+0x142c>
    936c:	e3760001 	cmn	r6, #1	; 0x1
    9370:	02866007 	addeq	r6, r6, #7	; 0x7
    9374:	0a000002 	beq	9384 <.text+0x1364>
    9378:	e3570047 	cmp	r7, #71	; 0x47
    937c:	13570067 	cmpne	r7, #103	; 0x67
    9380:	0a000362 	beq	a110 <.text+0x20f0>
    9384:	e59dc054 	ldr	ip, [sp, #84]
    9388:	e31c0008 	tst	ip, #8	; 0x8
    938c:	0a0002fb 	beq	9f80 <.text+0x1f60>
    9390:	e8990006 	ldmia	r9, {r1, r2}
    9394:	e2899008 	add	r9, r9, #8	; 0x8
    9398:	e58d1048 	str	r1, [sp, #72]
    939c:	e58d204c 	str	r2, [sp, #76]
    93a0:	e58d9050 	str	r9, [sp, #80]
    93a4:	e28d0048 	add	r0, sp, #72	; 0x48
    93a8:	e8900003 	ldmia	r0, {r0, r1}
    93ac:	eb00183b 	bl	f4a0 <isinf>
    93b0:	e2504000 	subs	r4, r0, #0	; 0x0
    93b4:	0a0003c4 	beq	a2cc <.text+0x22ac>
    93b8:	e3a03000 	mov	r3, #0	; 0x0
    93bc:	e28d0048 	add	r0, sp, #72	; 0x48
    93c0:	e8900003 	ldmia	r0, {r0, r1}
    93c4:	e3a02000 	mov	r2, #0	; 0x0
    93c8:	eb001c75 	bl	105a4 <__ledf2>
    93cc:	e3500000 	cmp	r0, #0	; 0x0
    93d0:	b3a0302d 	movlt	r3, #45	; 0x2d
    93d4:	b5cd36af 	strltb	r3, [sp, #1711]
    93d8:	e2473045 	sub	r3, r7, #69	; 0x45
    93dc:	e3530002 	cmp	r3, #2	; 0x2
    93e0:	8a0003a8 	bhi	a288 <.text+0x2268>
    93e4:	e3a03003 	mov	r3, #3	; 0x3
    93e8:	e59f4be0 	ldr	r4, [pc, #3040]	; 9fd0 <.text+0x1fb0>
    93ec:	e3a05000 	mov	r5, #0	; 0x0
    93f0:	e1a0b003 	mov	fp, r3
    93f4:	e58d303c 	str	r3, [sp, #60]
    93f8:	e58d401c 	str	r4, [sp, #28]
    93fc:	e58d5038 	str	r5, [sp, #56]
    9400:	eaffff33 	b	90d4 <.text+0x10b4>
    9404:	e59d5018 	ldr	r5, [sp, #24]
    9408:	e59dc054 	ldr	ip, [sp, #84]
    940c:	e5d53000 	ldrb	r3, [r5]
    9410:	e38cc040 	orr	ip, ip, #64	; 0x40
    9414:	e58dc054 	str	ip, [sp, #84]
    9418:	eafffe5e 	b	8d98 <_vfprintf_r+0x1f8>
    941c:	e3570000 	cmp	r7, #0	; 0x0
    9420:	0a000543 	beq	a934 <.text+0x2914>
    9424:	e28d3e45 	add	r3, sp, #1104	; 0x450
    9428:	e2833008 	add	r3, r3, #8	; 0x8
    942c:	e3a02001 	mov	r2, #1	; 0x1
    9430:	e58d301c 	str	r3, [sp, #28]
    9434:	e3a03000 	mov	r3, #0	; 0x0
    9438:	e58d203c 	str	r2, [sp, #60]
    943c:	e58d9050 	str	r9, [sp, #80]
    9440:	e5cd36af 	strb	r3, [sp, #1711]
    9444:	e5cd7458 	strb	r7, [sp, #1112]
    9448:	e1a0b002 	mov	fp, r2
    944c:	e3a05000 	mov	r5, #0	; 0x0
    9450:	e58d5038 	str	r5, [sp, #56]
    9454:	e59d2054 	ldr	r2, [sp, #84]
    9458:	e3120002 	tst	r2, #2	; 0x2
    945c:	159d303c 	ldrne	r3, [sp, #60]
    9460:	e59d4054 	ldr	r4, [sp, #84]
    9464:	12833002 	addne	r3, r3, #2	; 0x2
    9468:	158d303c 	strne	r3, [sp, #60]
    946c:	e2144084 	ands	r4, r4, #132	; 0x84
    9470:	e58d4014 	str	r4, [sp, #20]
    9474:	0affff20 	beq	90fc <.text+0x10dc>
    9478:	e59d6680 	ldr	r6, [sp, #1664]
    947c:	e59d567c 	ldr	r5, [sp, #1660]
    9480:	e5dd36af 	ldrb	r3, [sp, #1711]
    9484:	e3530000 	cmp	r3, #0	; 0x0
    9488:	0a000147 	beq	99ac <.text+0x198c>
    948c:	e2855001 	add	r5, r5, #1	; 0x1
    9490:	e28d3e6a 	add	r3, sp, #1696	; 0x6a0
    9494:	e2866001 	add	r6, r6, #1	; 0x1
    9498:	e283300f 	add	r3, r3, #15	; 0xf
    949c:	e3a02001 	mov	r2, #1	; 0x1
    94a0:	e3550007 	cmp	r5, #7	; 0x7
    94a4:	e5883000 	str	r3, [r8]
    94a8:	e5882004 	str	r2, [r8, #4]
    94ac:	e58d6680 	str	r6, [sp, #1664]
    94b0:	e58d567c 	str	r5, [sp, #1660]
    94b4:	ca00014d 	bgt	99f0 <.text+0x19d0>
    94b8:	e2888008 	add	r8, r8, #8	; 0x8
    94bc:	e59d2014 	ldr	r2, [sp, #20]
    94c0:	e3520080 	cmp	r2, #128	; 0x80
    94c4:	0a000155 	beq	9a20 <.text+0x1a00>
    94c8:	e59d1038 	ldr	r1, [sp, #56]
    94cc:	e06b4001 	rsb	r4, fp, r1
    94d0:	e3540000 	cmp	r4, #0	; 0x0
    94d4:	da00002e 	ble	9594 <.text+0x1574>
    94d8:	e3540010 	cmp	r4, #16	; 0x10
    94dc:	da000367 	ble	a280 <.text+0x2260>
    94e0:	e59f9b0c 	ldr	r9, [pc, #2828]	; 9ff4 <.text+0x1fd4>
    94e4:	ea000002 	b	94f4 <.text+0x14d4>
    94e8:	e2444010 	sub	r4, r4, #16	; 0x10
    94ec:	e3540010 	cmp	r4, #16	; 0x10
    94f0:	da000015 	ble	954c <.text+0x152c>
    94f4:	e2855001 	add	r5, r5, #1	; 0x1
    94f8:	e28d1e67 	add	r1, sp, #1648	; 0x670
    94fc:	e2866010 	add	r6, r6, #16	; 0x10
    9500:	e3a03010 	mov	r3, #16	; 0x10
    9504:	e3550007 	cmp	r5, #7	; 0x7
    9508:	e5883004 	str	r3, [r8, #4]
    950c:	e5889000 	str	r9, [r8]
    9510:	e1a0000a 	mov	r0, sl
    9514:	e2811008 	add	r1, r1, #8	; 0x8
    9518:	e2888008 	add	r8, r8, #8	; 0x8
    951c:	e58d6680 	str	r6, [sp, #1664]
    9520:	e58d567c 	str	r5, [sp, #1660]
    9524:	daffffef 	ble	94e8 <.text+0x14c8>
    9528:	ebfffd8c 	bl	8b60 <__sprint>
    952c:	e3500000 	cmp	r0, #0	; 0x0
    9530:	1afffe88 	bne	8f58 <.text+0xf38>
    9534:	e2444010 	sub	r4, r4, #16	; 0x10
    9538:	e3540010 	cmp	r4, #16	; 0x10
    953c:	e28d8e61 	add	r8, sp, #1552	; 0x610
    9540:	e59d6680 	ldr	r6, [sp, #1664]
    9544:	e59d567c 	ldr	r5, [sp, #1660]
    9548:	caffffe9 	bgt	94f4 <.text+0x14d4>
    954c:	e2855001 	add	r5, r5, #1	; 0x1
    9550:	e0866004 	add	r6, r6, r4
    9554:	e3550007 	cmp	r5, #7	; 0x7
    9558:	e5889000 	str	r9, [r8]
    955c:	e5884004 	str	r4, [r8, #4]
    9560:	e58d6680 	str	r6, [sp, #1664]
    9564:	e58d567c 	str	r5, [sp, #1660]
    9568:	d2888008 	addle	r8, r8, #8	; 0x8
    956c:	da000008 	ble	9594 <.text+0x1574>
    9570:	e28d1e67 	add	r1, sp, #1648	; 0x670
    9574:	e1a0000a 	mov	r0, sl
    9578:	e2811008 	add	r1, r1, #8	; 0x8
    957c:	ebfffd77 	bl	8b60 <__sprint>
    9580:	e3500000 	cmp	r0, #0	; 0x0
    9584:	1afffe73 	bne	8f58 <.text+0xf38>
    9588:	e59d6680 	ldr	r6, [sp, #1664]
    958c:	e59d567c 	ldr	r5, [sp, #1660]
    9590:	e28d8e61 	add	r8, sp, #1552	; 0x610
    9594:	e59d2054 	ldr	r2, [sp, #84]
    9598:	e3120c01 	tst	r2, #256	; 0x100
    959c:	1a000163 	bne	9b30 <.text+0x1b10>
    95a0:	e2855001 	add	r5, r5, #1	; 0x1
    95a4:	e59d301c 	ldr	r3, [sp, #28]
    95a8:	e086600b 	add	r6, r6, fp
    95ac:	e3550007 	cmp	r5, #7	; 0x7
    95b0:	e8880808 	stmia	r8, {r3, fp}
    95b4:	e58d6680 	str	r6, [sp, #1664]
    95b8:	e58d567c 	str	r5, [sp, #1660]
    95bc:	d288c008 	addle	ip, r8, #8	; 0x8
    95c0:	ca0001c6 	bgt	9ce0 <.text+0x1cc0>
    95c4:	e59d1054 	ldr	r1, [sp, #84]
    95c8:	e3110004 	tst	r1, #4	; 0x4
    95cc:	0a000031 	beq	9698 <.text+0x1678>
    95d0:	e59d2024 	ldr	r2, [sp, #36]
    95d4:	e59d303c 	ldr	r3, [sp, #60]
    95d8:	e0634002 	rsb	r4, r3, r2
    95dc:	e3540000 	cmp	r4, #0	; 0x0
    95e0:	da00002c 	ble	9698 <.text+0x1678>
    95e4:	e3540010 	cmp	r4, #16	; 0x10
    95e8:	da000393 	ble	a43c <.text+0x241c>
    95ec:	e59d567c 	ldr	r5, [sp, #1660]
    95f0:	e59f99f8 	ldr	r9, [pc, #2552]	; 9ff0 <.text+0x1fd0>
    95f4:	ea000002 	b	9604 <.text+0x15e4>
    95f8:	e2444010 	sub	r4, r4, #16	; 0x10
    95fc:	e3540010 	cmp	r4, #16	; 0x10
    9600:	da000015 	ble	965c <.text+0x163c>
    9604:	e2855001 	add	r5, r5, #1	; 0x1
    9608:	e28d1e67 	add	r1, sp, #1648	; 0x670
    960c:	e2866010 	add	r6, r6, #16	; 0x10
    9610:	e3a03010 	mov	r3, #16	; 0x10
    9614:	e3550007 	cmp	r5, #7	; 0x7
    9618:	e58c3004 	str	r3, [ip, #4]
    961c:	e58c9000 	str	r9, [ip]
    9620:	e1a0000a 	mov	r0, sl
    9624:	e2811008 	add	r1, r1, #8	; 0x8
    9628:	e28cc008 	add	ip, ip, #8	; 0x8
    962c:	e58d6680 	str	r6, [sp, #1664]
    9630:	e58d567c 	str	r5, [sp, #1660]
    9634:	daffffef 	ble	95f8 <.text+0x15d8>
    9638:	ebfffd48 	bl	8b60 <__sprint>
    963c:	e3500000 	cmp	r0, #0	; 0x0
    9640:	1afffe44 	bne	8f58 <.text+0xf38>
    9644:	e2444010 	sub	r4, r4, #16	; 0x10
    9648:	e3540010 	cmp	r4, #16	; 0x10
    964c:	e28dce61 	add	ip, sp, #1552	; 0x610
    9650:	e59d6680 	ldr	r6, [sp, #1664]
    9654:	e59d567c 	ldr	r5, [sp, #1660]
    9658:	caffffe9 	bgt	9604 <.text+0x15e4>
    965c:	e2855001 	add	r5, r5, #1	; 0x1
    9660:	e0866004 	add	r6, r6, r4
    9664:	e3550007 	cmp	r5, #7	; 0x7
    9668:	e58c9000 	str	r9, [ip]
    966c:	e58c4004 	str	r4, [ip, #4]
    9670:	e58d6680 	str	r6, [sp, #1664]
    9674:	e58d567c 	str	r5, [sp, #1660]
    9678:	da000006 	ble	9698 <.text+0x1678>
    967c:	e28d1e67 	add	r1, sp, #1648	; 0x670
    9680:	e1a0000a 	mov	r0, sl
    9684:	e2811008 	add	r1, r1, #8	; 0x8
    9688:	ebfffd34 	bl	8b60 <__sprint>
    968c:	e3500000 	cmp	r0, #0	; 0x0
    9690:	1afffe30 	bne	8f58 <.text+0xf38>
    9694:	e59d6680 	ldr	r6, [sp, #1664]
    9698:	e28d4020 	add	r4, sp, #32	; 0x20
    969c:	e8940030 	ldmia	r4, {r4, r5}
    96a0:	e59d803c 	ldr	r8, [sp, #60]
    96a4:	e1550008 	cmp	r5, r8
    96a8:	a0844005 	addge	r4, r4, r5
    96ac:	b0844008 	addlt	r4, r4, r8
    96b0:	e3560000 	cmp	r6, #0	; 0x0
    96b4:	e58d4020 	str	r4, [sp, #32]
    96b8:	1afffe20 	bne	8f40 <.text+0xf20>
    96bc:	e59dc044 	ldr	ip, [sp, #68]
    96c0:	e3a05000 	mov	r5, #0	; 0x0
    96c4:	e35c0000 	cmp	ip, #0	; 0x0
    96c8:	e58d567c 	str	r5, [sp, #1660]
    96cc:	028d8e61 	addeq	r8, sp, #1552	; 0x610
    96d0:	0a000004 	beq	96e8 <.text+0x16c8>
    96d4:	e1a0100c 	mov	r1, ip
    96d8:	e59d0010 	ldr	r0, [sp, #16]
    96dc:	eb000dfb 	bl	ced0 <_free_r>
    96e0:	e58d5044 	str	r5, [sp, #68]
    96e4:	e28d8e61 	add	r8, sp, #1552	; 0x610
    96e8:	e59d9050 	ldr	r9, [sp, #80]
    96ec:	eafffd80 	b	8cf4 <_vfprintf_r+0x154>
    96f0:	e59f18dc 	ldr	r1, [pc, #2268]	; 9fd4 <.text+0x1fb4>
    96f4:	e58d1040 	str	r1, [sp, #64]
    96f8:	eafffee9 	b	92a4 <.text+0x1284>
    96fc:	e59dc054 	ldr	ip, [sp, #84]
    9700:	e5991000 	ldr	r1, [r9]
    9704:	e59f58c8 	ldr	r5, [pc, #2248]	; 9fd4 <.text+0x1fb4>
    9708:	e38cc002 	orr	ip, ip, #2	; 0x2
    970c:	e2899004 	add	r9, r9, #4	; 0x4
    9710:	e3a07078 	mov	r7, #120	; 0x78
    9714:	e3a02002 	mov	r2, #2	; 0x2
    9718:	e58d5040 	str	r5, [sp, #64]
    971c:	e58dc054 	str	ip, [sp, #84]
    9720:	e58d9050 	str	r9, [sp, #80]
    9724:	eafffe47 	b	9048 <.text+0x1028>
    9728:	e59d5018 	ldr	r5, [sp, #24]
    972c:	e59dc054 	ldr	ip, [sp, #84]
    9730:	e5d53000 	ldrb	r3, [r5]
    9734:	e38cc010 	orr	ip, ip, #16	; 0x10
    9738:	e58dc054 	str	ip, [sp, #84]
    973c:	eafffd95 	b	8d98 <_vfprintf_r+0x1f8>
    9740:	e3a04000 	mov	r4, #0	; 0x0
    9744:	e5cd46af 	strb	r4, [sp, #1711]
    9748:	e5991000 	ldr	r1, [r9]
    974c:	e2899004 	add	r9, r9, #4	; 0x4
    9750:	e1510004 	cmp	r1, r4
    9754:	e58d101c 	str	r1, [sp, #28]
    9758:	e58d9050 	str	r9, [sp, #80]
    975c:	0a000330 	beq	a424 <.text+0x2404>
    9760:	e3570053 	cmp	r7, #83	; 0x53
    9764:	0a000002 	beq	9774 <.text+0x1754>
    9768:	e59d2054 	ldr	r2, [sp, #84]
    976c:	e2125010 	ands	r5, r2, #16	; 0x10
    9770:	0a000269 	beq	a11c <.text+0x20fc>
    9774:	e28d9d1a 	add	r9, sp, #1664	; 0x680
    9778:	e59d301c 	ldr	r3, [sp, #28]
    977c:	e2899004 	add	r9, r9, #4	; 0x4
    9780:	e1a00009 	mov	r0, r9
    9784:	e1a01004 	mov	r1, r4
    9788:	e3a02008 	mov	r2, #8	; 0x8
    978c:	e58d36a4 	str	r3, [sp, #1700]
    9790:	ebfffaed 	bl	834c <memset>
    9794:	e3560000 	cmp	r6, #0	; 0x0
    9798:	ba000443 	blt	a8ac <.text+0x288c>
    979c:	e28d5e45 	add	r5, sp, #1104	; 0x450
    97a0:	e1a0b004 	mov	fp, r4
    97a4:	e2855008 	add	r5, r5, #8	; 0x8
    97a8:	e59d36a4 	ldr	r3, [sp, #1700]
    97ac:	e794c003 	ldr	ip, [r4, r3]
    97b0:	e35c0000 	cmp	ip, #0	; 0x0
    97b4:	e1a0200c 	mov	r2, ip
    97b8:	e59d0010 	ldr	r0, [sp, #16]
    97bc:	e1a01005 	mov	r1, r5
    97c0:	e1a03009 	mov	r3, r9
    97c4:	0a000009 	beq	97f0 <.text+0x17d0>
    97c8:	eb0004c6 	bl	aae8 <_wcrtomb_r>
    97cc:	e3700001 	cmn	r0, #1	; 0x1
    97d0:	e08b3000 	add	r3, fp, r0
    97d4:	0a000440 	beq	a8dc <.text+0x28bc>
    97d8:	e1560003 	cmp	r6, r3
    97dc:	ba000003 	blt	97f0 <.text+0x17d0>
    97e0:	e1a0b003 	mov	fp, r3
    97e4:	e2844004 	add	r4, r4, #4	; 0x4
    97e8:	1affffee 	bne	97a8 <.text+0x1788>
    97ec:	e1a0b006 	mov	fp, r6
    97f0:	e35b0000 	cmp	fp, #0	; 0x0
    97f4:	058db038 	streq	fp, [sp, #56]
    97f8:	058db03c 	streq	fp, [sp, #60]
    97fc:	0afffe34 	beq	90d4 <.text+0x10b4>
    9800:	e59d0010 	ldr	r0, [sp, #16]
    9804:	e28b1001 	add	r1, fp, #1	; 0x1
    9808:	eb001023 	bl	d89c <_malloc_r>
    980c:	e3500000 	cmp	r0, #0	; 0x0
    9810:	0a000431 	beq	a8dc <.text+0x28bc>
    9814:	e58d0044 	str	r0, [sp, #68]
    9818:	e3a01000 	mov	r1, #0	; 0x0
    981c:	e3a02008 	mov	r2, #8	; 0x8
    9820:	e1a00009 	mov	r0, r9
    9824:	ebfffac8 	bl	834c <memset>
    9828:	e28d2e6a 	add	r2, sp, #1696	; 0x6a0
    982c:	e59d0010 	ldr	r0, [sp, #16]
    9830:	e59d1044 	ldr	r1, [sp, #68]
    9834:	e2822004 	add	r2, r2, #4	; 0x4
    9838:	e1a0300b 	mov	r3, fp
    983c:	e58d9000 	str	r9, [sp]
    9840:	eb0004c8 	bl	ab68 <_wcsrtombs_r>
    9844:	e15b0000 	cmp	fp, r0
    9848:	1a000492 	bne	aa98 <.text+0x2a78>
    984c:	e3a03000 	mov	r3, #0	; 0x0
    9850:	e59dc044 	ldr	ip, [sp, #68]
    9854:	e15b0003 	cmp	fp, r3
    9858:	a1a0500b 	movge	r5, fp
    985c:	b1a05003 	movlt	r5, r3
    9860:	e58d503c 	str	r5, [sp, #60]
    9864:	e58d3038 	str	r3, [sp, #56]
    9868:	e58dc01c 	str	ip, [sp, #28]
    986c:	e7cc300b 	strb	r3, [ip, fp]
    9870:	eafffe17 	b	90d4 <.text+0x10b4>
    9874:	e59d1018 	ldr	r1, [sp, #24]
    9878:	e5d13000 	ldrb	r3, [r1]
    987c:	e353006c 	cmp	r3, #108	; 0x6c
    9880:	059d2054 	ldreq	r2, [sp, #84]
    9884:	159d4054 	ldrne	r4, [sp, #84]
    9888:	05f13001 	ldreqb	r3, [r1, #1]!
    988c:	03822010 	orreq	r2, r2, #16	; 0x10
    9890:	13844010 	orrne	r4, r4, #16	; 0x10
    9894:	058d1018 	streq	r1, [sp, #24]
    9898:	058d2054 	streq	r2, [sp, #84]
    989c:	158d4054 	strne	r4, [sp, #84]
    98a0:	eafffd3c 	b	8d98 <_vfprintf_r+0x1f8>
    98a4:	e59d3054 	ldr	r3, [sp, #84]
    98a8:	e3130010 	tst	r3, #16	; 0x10
    98ac:	1a0001df 	bne	a030 <.text+0x2010>
    98b0:	e59d5054 	ldr	r5, [sp, #84]
    98b4:	e3150040 	tst	r5, #64	; 0x40
    98b8:	15993000 	ldrne	r3, [r9]
    98bc:	05993000 	ldreq	r3, [r9]
    98c0:	12899004 	addne	r9, r9, #4	; 0x4
    98c4:	02899004 	addeq	r9, r9, #4	; 0x4
    98c8:	158d9050 	strne	r9, [sp, #80]
    98cc:	058d9050 	streq	r9, [sp, #80]
    98d0:	159dc020 	ldrne	ip, [sp, #32]
    98d4:	059d1020 	ldreq	r1, [sp, #32]
    98d8:	e59d9050 	ldr	r9, [sp, #80]
    98dc:	11c3c0b0 	strneh	ip, [r3]
    98e0:	05831000 	streq	r1, [r3]
    98e4:	eafffd02 	b	8cf4 <_vfprintf_r+0x154>
    98e8:	e59d2018 	ldr	r2, [sp, #24]
    98ec:	e59d4054 	ldr	r4, [sp, #84]
    98f0:	e5d23000 	ldrb	r3, [r2]
    98f4:	e3844008 	orr	r4, r4, #8	; 0x8
    98f8:	e58d4054 	str	r4, [sp, #84]
    98fc:	eafffd25 	b	8d98 <_vfprintf_r+0x1f8>
    9900:	e59d5018 	ldr	r5, [sp, #24]
    9904:	e59dc054 	ldr	ip, [sp, #84]
    9908:	e5d53000 	ldrb	r3, [r5]
    990c:	e38cc080 	orr	ip, ip, #128	; 0x80
    9910:	e58dc054 	str	ip, [sp, #84]
    9914:	eafffd1f 	b	8d98 <_vfprintf_r+0x1f8>
    9918:	e3a03000 	mov	r3, #0	; 0x0
    991c:	e59d1018 	ldr	r1, [sp, #24]
    9920:	e0832103 	add	r2, r3, r3, lsl #2
    9924:	e0872082 	add	r2, r7, r2, lsl #1
    9928:	e4d17001 	ldrb	r7, [r1], #1
    992c:	e2473030 	sub	r3, r7, #48	; 0x30
    9930:	e3530009 	cmp	r3, #9	; 0x9
    9934:	e58d1018 	str	r1, [sp, #24]
    9938:	e2423030 	sub	r3, r2, #48	; 0x30
    993c:	9afffff6 	bls	991c <.text+0x18fc>
    9940:	e58d3024 	str	r3, [sp, #36]
    9944:	eafffd17 	b	8da8 <_vfprintf_r+0x208>
    9948:	e59d2018 	ldr	r2, [sp, #24]
    994c:	e4d23001 	ldrb	r3, [r2], #1
    9950:	e353002a 	cmp	r3, #42	; 0x2a
    9954:	0a000439 	beq	aa40 <.text+0x2a20>
    9958:	e1a07003 	mov	r7, r3
    995c:	e2433030 	sub	r3, r3, #48	; 0x30
    9960:	e3530009 	cmp	r3, #9	; 0x9
    9964:	83a06000 	movhi	r6, #0	; 0x0
    9968:	8a00000d 	bhi	99a4 <.text+0x1984>
    996c:	e59d1018 	ldr	r1, [sp, #24]
    9970:	e3a02000 	mov	r2, #0	; 0x0
    9974:	e0822102 	add	r2, r2, r2, lsl #2
    9978:	e0872082 	add	r2, r7, r2, lsl #1
    997c:	e5f17001 	ldrb	r7, [r1, #1]!
    9980:	e2473030 	sub	r3, r7, #48	; 0x30
    9984:	e3530009 	cmp	r3, #9	; 0x9
    9988:	e2422030 	sub	r2, r2, #48	; 0x30
    998c:	9afffff8 	bls	9974 <.text+0x1954>
    9990:	e3e03000 	mvn	r3, #0	; 0x0
    9994:	e1520003 	cmp	r2, r3
    9998:	a1a06002 	movge	r6, r2
    999c:	b1a06003 	movlt	r6, r3
    99a0:	e2812001 	add	r2, r1, #1	; 0x1
    99a4:	e58d2018 	str	r2, [sp, #24]
    99a8:	eafffcfe 	b	8da8 <_vfprintf_r+0x208>
    99ac:	e59d1054 	ldr	r1, [sp, #84]
    99b0:	e3110002 	tst	r1, #2	; 0x2
    99b4:	0afffec0 	beq	94bc <.text+0x149c>
    99b8:	e3a03030 	mov	r3, #48	; 0x30
    99bc:	e5cd36ad 	strb	r3, [sp, #1709]
    99c0:	e2855001 	add	r5, r5, #1	; 0x1
    99c4:	e28d3e6a 	add	r3, sp, #1696	; 0x6a0
    99c8:	e2866002 	add	r6, r6, #2	; 0x2
    99cc:	e283300d 	add	r3, r3, #13	; 0xd
    99d0:	e3a02002 	mov	r2, #2	; 0x2
    99d4:	e3550007 	cmp	r5, #7	; 0x7
    99d8:	e5cd76ae 	strb	r7, [sp, #1710]
    99dc:	e58d6680 	str	r6, [sp, #1664]
    99e0:	e5883000 	str	r3, [r8]
    99e4:	e5882004 	str	r2, [r8, #4]
    99e8:	e58d567c 	str	r5, [sp, #1660]
    99ec:	dafffeb1 	ble	94b8 <.text+0x1498>
    99f0:	e28d1e67 	add	r1, sp, #1648	; 0x670
    99f4:	e1a0000a 	mov	r0, sl
    99f8:	e2811008 	add	r1, r1, #8	; 0x8
    99fc:	ebfffc57 	bl	8b60 <__sprint>
    9a00:	e3500000 	cmp	r0, #0	; 0x0
    9a04:	1afffd53 	bne	8f58 <.text+0xf38>
    9a08:	e59d2014 	ldr	r2, [sp, #20]
    9a0c:	e3520080 	cmp	r2, #128	; 0x80
    9a10:	e59d6680 	ldr	r6, [sp, #1664]
    9a14:	e59d567c 	ldr	r5, [sp, #1660]
    9a18:	e28d8e61 	add	r8, sp, #1552	; 0x610
    9a1c:	1afffea9 	bne	94c8 <.text+0x14a8>
    9a20:	e59d3024 	ldr	r3, [sp, #36]
    9a24:	e59dc03c 	ldr	ip, [sp, #60]
    9a28:	e06c4003 	rsb	r4, ip, r3
    9a2c:	e3540000 	cmp	r4, #0	; 0x0
    9a30:	dafffea4 	ble	94c8 <.text+0x14a8>
    9a34:	e3540010 	cmp	r4, #16	; 0x10
    9a38:	da00032e 	ble	a6f8 <.text+0x26d8>
    9a3c:	e59f95b0 	ldr	r9, [pc, #1456]	; 9ff4 <.text+0x1fd4>
    9a40:	ea000002 	b	9a50 <.text+0x1a30>
    9a44:	e2444010 	sub	r4, r4, #16	; 0x10
    9a48:	e3540010 	cmp	r4, #16	; 0x10
    9a4c:	da000015 	ble	9aa8 <.text+0x1a88>
    9a50:	e2855001 	add	r5, r5, #1	; 0x1
    9a54:	e28d1e67 	add	r1, sp, #1648	; 0x670
    9a58:	e2866010 	add	r6, r6, #16	; 0x10
    9a5c:	e3a03010 	mov	r3, #16	; 0x10
    9a60:	e3550007 	cmp	r5, #7	; 0x7
    9a64:	e5883004 	str	r3, [r8, #4]
    9a68:	e5889000 	str	r9, [r8]
    9a6c:	e1a0000a 	mov	r0, sl
    9a70:	e2811008 	add	r1, r1, #8	; 0x8
    9a74:	e2888008 	add	r8, r8, #8	; 0x8
    9a78:	e58d6680 	str	r6, [sp, #1664]
    9a7c:	e58d567c 	str	r5, [sp, #1660]
    9a80:	daffffef 	ble	9a44 <.text+0x1a24>
    9a84:	ebfffc35 	bl	8b60 <__sprint>
    9a88:	e3500000 	cmp	r0, #0	; 0x0
    9a8c:	1afffd31 	bne	8f58 <.text+0xf38>
    9a90:	e2444010 	sub	r4, r4, #16	; 0x10
    9a94:	e3540010 	cmp	r4, #16	; 0x10
    9a98:	e28d8e61 	add	r8, sp, #1552	; 0x610
    9a9c:	e59d6680 	ldr	r6, [sp, #1664]
    9aa0:	e59d567c 	ldr	r5, [sp, #1660]
    9aa4:	caffffe9 	bgt	9a50 <.text+0x1a30>
    9aa8:	e2855001 	add	r5, r5, #1	; 0x1
    9aac:	e0866004 	add	r6, r6, r4
    9ab0:	e3550007 	cmp	r5, #7	; 0x7
    9ab4:	e5889000 	str	r9, [r8]
    9ab8:	e5884004 	str	r4, [r8, #4]
    9abc:	e58d6680 	str	r6, [sp, #1664]
    9ac0:	e58d567c 	str	r5, [sp, #1660]
    9ac4:	d2888008 	addle	r8, r8, #8	; 0x8
    9ac8:	dafffe7e 	ble	94c8 <.text+0x14a8>
    9acc:	e28d1e67 	add	r1, sp, #1648	; 0x670
    9ad0:	e1a0000a 	mov	r0, sl
    9ad4:	e2811008 	add	r1, r1, #8	; 0x8
    9ad8:	ebfffc20 	bl	8b60 <__sprint>
    9adc:	e3500000 	cmp	r0, #0	; 0x0
    9ae0:	1afffd1c 	bne	8f58 <.text+0xf38>
    9ae4:	e59d6680 	ldr	r6, [sp, #1664]
    9ae8:	e59d567c 	ldr	r5, [sp, #1660]
    9aec:	e28d8e61 	add	r8, sp, #1552	; 0x610
    9af0:	eafffe74 	b	94c8 <.text+0x14a8>
    9af4:	e2013007 	and	r3, r1, #7	; 0x7
    9af8:	e2833030 	add	r3, r3, #48	; 0x30
    9afc:	e1b011a1 	movs	r1, r1, lsr #3
    9b00:	e5603001 	strb	r3, [r0, #-1]!
    9b04:	1afffffa 	bne	9af4 <.text+0x1ad4>
    9b08:	e59d5054 	ldr	r5, [sp, #84]
    9b0c:	e3150001 	tst	r5, #1	; 0x1
    9b10:	e58d001c 	str	r0, [sp, #28]
    9b14:	0afffd64 	beq	90ac <.text+0x108c>
    9b18:	e3530030 	cmp	r3, #48	; 0x30
    9b1c:	11a0c000 	movne	ip, r0
    9b20:	13a03030 	movne	r3, #48	; 0x30
    9b24:	156c3001 	strneb	r3, [ip, #-1]!
    9b28:	158dc01c 	strne	ip, [sp, #28]
    9b2c:	eafffd5e 	b	90ac <.text+0x108c>
    9b30:	e3570065 	cmp	r7, #101	; 0x65
    9b34:	da000072 	ble	9d04 <.text+0x1ce4>
    9b38:	e28d0048 	add	r0, sp, #72	; 0x48
    9b3c:	e8900003 	ldmia	r0, {r0, r1}
    9b40:	e3a02000 	mov	r2, #0	; 0x0
    9b44:	e3a03000 	mov	r3, #0	; 0x0
    9b48:	eb001a97 	bl	105ac <__cmpdf2>
    9b4c:	e3500000 	cmp	r0, #0	; 0x0
    9b50:	1a00003a 	bne	9c40 <.text+0x1c20>
    9b54:	e2855001 	add	r5, r5, #1	; 0x1
    9b58:	e59f3488 	ldr	r3, [pc, #1160]	; 9fe8 <.text+0x1fc8>
    9b5c:	e3550007 	cmp	r5, #7	; 0x7
    9b60:	e2866001 	add	r6, r6, #1	; 0x1
    9b64:	e3a02001 	mov	r2, #1	; 0x1
    9b68:	e5883000 	str	r3, [r8]
    9b6c:	e5882004 	str	r2, [r8, #4]
    9b70:	e58d6680 	str	r6, [sp, #1664]
    9b74:	e58d567c 	str	r5, [sp, #1660]
    9b78:	d288c008 	addle	ip, r8, #8	; 0x8
    9b7c:	ca0001c9 	bgt	a2a8 <.text+0x2288>
    9b80:	e59d369c 	ldr	r3, [sp, #1692]
    9b84:	e59d4034 	ldr	r4, [sp, #52]
    9b88:	e1530004 	cmp	r3, r4
    9b8c:	aa0000f7 	bge	9f70 <.text+0x1f50>
    9b90:	e59d567c 	ldr	r5, [sp, #1660]
    9b94:	e59d8028 	ldr	r8, [sp, #40]
    9b98:	e2855001 	add	r5, r5, #1	; 0x1
    9b9c:	e3550007 	cmp	r5, #7	; 0x7
    9ba0:	e2866001 	add	r6, r6, #1	; 0x1
    9ba4:	e3a03001 	mov	r3, #1	; 0x1
    9ba8:	e58c3004 	str	r3, [ip, #4]
    9bac:	e58c8000 	str	r8, [ip]
    9bb0:	e58d6680 	str	r6, [sp, #1664]
    9bb4:	e58d567c 	str	r5, [sp, #1660]
    9bb8:	d28cc008 	addle	ip, ip, #8	; 0x8
    9bbc:	ca0001d1 	bgt	a308 <.text+0x22e8>
    9bc0:	e59d1034 	ldr	r1, [sp, #52]
    9bc4:	e2414001 	sub	r4, r1, #1	; 0x1
    9bc8:	e3540000 	cmp	r4, #0	; 0x0
    9bcc:	dafffe7c 	ble	95c4 <.text+0x15a4>
    9bd0:	e3540010 	cmp	r4, #16	; 0x10
    9bd4:	da00018f 	ble	a218 <.text+0x21f8>
    9bd8:	e59d567c 	ldr	r5, [sp, #1660]
    9bdc:	e59f9410 	ldr	r9, [pc, #1040]	; 9ff4 <.text+0x1fd4>
    9be0:	ea000002 	b	9bf0 <.text+0x1bd0>
    9be4:	e2444010 	sub	r4, r4, #16	; 0x10
    9be8:	e3540010 	cmp	r4, #16	; 0x10
    9bec:	da00018b 	ble	a220 <.text+0x2200>
    9bf0:	e2855001 	add	r5, r5, #1	; 0x1
    9bf4:	e28d1e67 	add	r1, sp, #1648	; 0x670
    9bf8:	e2866010 	add	r6, r6, #16	; 0x10
    9bfc:	e3a03010 	mov	r3, #16	; 0x10
    9c00:	e3550007 	cmp	r5, #7	; 0x7
    9c04:	e58c3004 	str	r3, [ip, #4]
    9c08:	e58c9000 	str	r9, [ip]
    9c0c:	e1a0000a 	mov	r0, sl
    9c10:	e2811008 	add	r1, r1, #8	; 0x8
    9c14:	e28cc008 	add	ip, ip, #8	; 0x8
    9c18:	e58d6680 	str	r6, [sp, #1664]
    9c1c:	e58d567c 	str	r5, [sp, #1660]
    9c20:	daffffef 	ble	9be4 <.text+0x1bc4>
    9c24:	ebfffbcd 	bl	8b60 <__sprint>
    9c28:	e3500000 	cmp	r0, #0	; 0x0
    9c2c:	1afffcc9 	bne	8f58 <.text+0xf38>
    9c30:	e59d6680 	ldr	r6, [sp, #1664]
    9c34:	e59d567c 	ldr	r5, [sp, #1660]
    9c38:	e28dce61 	add	ip, sp, #1552	; 0x610
    9c3c:	eaffffe8 	b	9be4 <.text+0x1bc4>
    9c40:	e59d069c 	ldr	r0, [sp, #1692]
    9c44:	e3500000 	cmp	r0, #0	; 0x0
    9c48:	da0001bb 	ble	a33c <.text+0x231c>
    9c4c:	e59dc034 	ldr	ip, [sp, #52]
    9c50:	e150000c 	cmp	r0, ip
    9c54:	aa0000fc 	bge	a04c <.text+0x202c>
    9c58:	e2855001 	add	r5, r5, #1	; 0x1
    9c5c:	e59d401c 	ldr	r4, [sp, #28]
    9c60:	e0866000 	add	r6, r6, r0
    9c64:	e3550007 	cmp	r5, #7	; 0x7
    9c68:	e5884000 	str	r4, [r8]
    9c6c:	e5880004 	str	r0, [r8, #4]
    9c70:	e58d6680 	str	r6, [sp, #1664]
    9c74:	e58d567c 	str	r5, [sp, #1660]
    9c78:	d2881008 	addle	r1, r8, #8	; 0x8
    9c7c:	ca000288 	bgt	a6a4 <.text+0x2684>
    9c80:	e2855001 	add	r5, r5, #1	; 0x1
    9c84:	e59f3350 	ldr	r3, [pc, #848]	; 9fdc <.text+0x1fbc>
    9c88:	e2866001 	add	r6, r6, #1	; 0x1
    9c8c:	e3550007 	cmp	r5, #7	; 0x7
    9c90:	e3a02001 	mov	r2, #1	; 0x1
    9c94:	e5813000 	str	r3, [r1]
    9c98:	e5812004 	str	r2, [r1, #4]
    9c9c:	e58d6680 	str	r6, [sp, #1664]
    9ca0:	e58d567c 	str	r5, [sp, #1660]
    9ca4:	e1a04000 	mov	r4, r0
    9ca8:	d281c008 	addle	ip, r1, #8	; 0x8
    9cac:	ca000271 	bgt	a678 <.text+0x2658>
    9cb0:	e59d8034 	ldr	r8, [sp, #52]
    9cb4:	e59d101c 	ldr	r1, [sp, #28]
    9cb8:	e0602008 	rsb	r2, r0, r8
    9cbc:	e2855001 	add	r5, r5, #1	; 0x1
    9cc0:	e0843001 	add	r3, r4, r1
    9cc4:	e0866002 	add	r6, r6, r2
    9cc8:	e3550007 	cmp	r5, #7	; 0x7
    9ccc:	e58c3000 	str	r3, [ip]
    9cd0:	e58c2004 	str	r2, [ip, #4]
    9cd4:	e58d6680 	str	r6, [sp, #1664]
    9cd8:	e58d567c 	str	r5, [sp, #1660]
    9cdc:	da000141 	ble	a1e8 <.text+0x21c8>
    9ce0:	e28d1e67 	add	r1, sp, #1648	; 0x670
    9ce4:	e1a0000a 	mov	r0, sl
    9ce8:	e2811008 	add	r1, r1, #8	; 0x8
    9cec:	ebfffb9b 	bl	8b60 <__sprint>
    9cf0:	e3500000 	cmp	r0, #0	; 0x0
    9cf4:	1afffc97 	bne	8f58 <.text+0xf38>
    9cf8:	e59d6680 	ldr	r6, [sp, #1664]
    9cfc:	e28dce61 	add	ip, sp, #1552	; 0x610
    9d00:	eafffe2f 	b	95c4 <.text+0x15a4>
    9d04:	e59d2034 	ldr	r2, [sp, #52]
    9d08:	e3520001 	cmp	r2, #1	; 0x1
    9d0c:	da00014d 	ble	a248 <.text+0x2228>
    9d10:	e59d401c 	ldr	r4, [sp, #28]
    9d14:	e5d42000 	ldrb	r2, [r4]
    9d18:	e2855001 	add	r5, r5, #1	; 0x1
    9d1c:	e5cd26ad 	strb	r2, [sp, #1709]
    9d20:	e3a0302e 	mov	r3, #46	; 0x2e
    9d24:	e28d2e6a 	add	r2, sp, #1696	; 0x6a0
    9d28:	e5cd36ae 	strb	r3, [sp, #1710]
    9d2c:	e2866002 	add	r6, r6, #2	; 0x2
    9d30:	e3550007 	cmp	r5, #7	; 0x7
    9d34:	e282200d 	add	r2, r2, #13	; 0xd
    9d38:	e243302c 	sub	r3, r3, #44	; 0x2c
    9d3c:	e888000c 	stmia	r8, {r2, r3}
    9d40:	e58d6680 	str	r6, [sp, #1664]
    9d44:	e58d567c 	str	r5, [sp, #1660]
    9d48:	d2884008 	addle	r4, r8, #8	; 0x8
    9d4c:	ca00007d 	bgt	9f48 <.text+0x1f28>
    9d50:	e28d0048 	add	r0, sp, #72	; 0x48
    9d54:	e8900003 	ldmia	r0, {r0, r1}
    9d58:	e3a02000 	mov	r2, #0	; 0x0
    9d5c:	e3a03000 	mov	r3, #0	; 0x0
    9d60:	eb001a11 	bl	105ac <__cmpdf2>
    9d64:	e3500000 	cmp	r0, #0	; 0x0
    9d68:	0a000038 	beq	9e50 <.text+0x1e30>
    9d6c:	e59d8034 	ldr	r8, [sp, #52]
    9d70:	e59dc01c 	ldr	ip, [sp, #28]
    9d74:	e2855001 	add	r5, r5, #1	; 0x1
    9d78:	e0883006 	add	r3, r8, r6
    9d7c:	e2436001 	sub	r6, r3, #1	; 0x1
    9d80:	e28c2001 	add	r2, ip, #1	; 0x1
    9d84:	e2483001 	sub	r3, r8, #1	; 0x1
    9d88:	e3550007 	cmp	r5, #7	; 0x7
    9d8c:	e884000c 	stmia	r4, {r2, r3}
    9d90:	e58d6680 	str	r6, [sp, #1664]
    9d94:	e58d567c 	str	r5, [sp, #1660]
    9d98:	ca000060 	bgt	9f20 <.text+0x1f00>
    9d9c:	e2844008 	add	r4, r4, #8	; 0x8
    9da0:	e59d3030 	ldr	r3, [sp, #48]
    9da4:	e2855001 	add	r5, r5, #1	; 0x1
    9da8:	e0866003 	add	r6, r6, r3
    9dac:	e59d8030 	ldr	r8, [sp, #48]
    9db0:	e28d3e69 	add	r3, sp, #1680	; 0x690
    9db4:	e3550007 	cmp	r5, #7	; 0x7
    9db8:	e2833005 	add	r3, r3, #5	; 0x5
    9dbc:	e8840108 	stmia	r4, {r3, r8}
    9dc0:	e58d6680 	str	r6, [sp, #1664]
    9dc4:	e58d567c 	str	r5, [sp, #1660]
    9dc8:	d284c008 	addle	ip, r4, #8	; 0x8
    9dcc:	dafffdfc 	ble	95c4 <.text+0x15a4>
    9dd0:	eaffffc2 	b	9ce0 <.text+0x1cc0>
    9dd4:	e28d1e67 	add	r1, sp, #1648	; 0x670
    9dd8:	e1a0000a 	mov	r0, sl
    9ddc:	e2811008 	add	r1, r1, #8	; 0x8
    9de0:	ebfffb5e 	bl	8b60 <__sprint>
    9de4:	e3500000 	cmp	r0, #0	; 0x0
    9de8:	1afffc60 	bne	8f70 <.text+0xf50>
    9dec:	e28d8e61 	add	r8, sp, #1552	; 0x610
    9df0:	eafffbd9 	b	8d5c <_vfprintf_r+0x1bc>
    9df4:	e3510009 	cmp	r1, #9	; 0x9
    9df8:	928d4e5b 	addls	r4, sp, #1456	; 0x5b0
    9dfc:	92844003 	addls	r4, r4, #3	; 0x3
    9e00:	958d401c 	strls	r4, [sp, #28]
    9e04:	9a00000d 	bls	9e40 <.text+0x1e20>
    9e08:	e28d0e5b 	add	r0, sp, #1456	; 0x5b0
    9e0c:	e59fc1c4 	ldr	ip, [pc, #452]	; 9fd8 <.text+0x1fb8>
    9e10:	e2800004 	add	r0, r0, #4	; 0x4
    9e14:	e083219c 	umull	r2, r3, ip, r1
    9e18:	e1a031a3 	mov	r3, r3, lsr #3
    9e1c:	e0832103 	add	r2, r3, r3, lsl #2
    9e20:	e0412082 	sub	r2, r1, r2, lsl #1
    9e24:	e2822030 	add	r2, r2, #48	; 0x30
    9e28:	e3530009 	cmp	r3, #9	; 0x9
    9e2c:	e1a01003 	mov	r1, r3
    9e30:	e5602001 	strb	r2, [r0, #-1]!
    9e34:	8afffff6 	bhi	9e14 <.text+0x1df4>
    9e38:	e2400001 	sub	r0, r0, #1	; 0x1
    9e3c:	e58d001c 	str	r0, [sp, #28]
    9e40:	e59d401c 	ldr	r4, [sp, #28]
    9e44:	e2813030 	add	r3, r1, #48	; 0x30
    9e48:	e5c43000 	strb	r3, [r4]
    9e4c:	eafffc96 	b	90ac <.text+0x108c>
    9e50:	e59d1034 	ldr	r1, [sp, #52]
    9e54:	e2417001 	sub	r7, r1, #1	; 0x1
    9e58:	e3570000 	cmp	r7, #0	; 0x0
    9e5c:	daffffcf 	ble	9da0 <.text+0x1d80>
    9e60:	e3570010 	cmp	r7, #16	; 0x10
    9e64:	da000024 	ble	9efc <.text+0x1edc>
    9e68:	e59f9184 	ldr	r9, [pc, #388]	; 9ff4 <.text+0x1fd4>
    9e6c:	ea000002 	b	9e7c <.text+0x1e5c>
    9e70:	e2477010 	sub	r7, r7, #16	; 0x10
    9e74:	e3570010 	cmp	r7, #16	; 0x10
    9e78:	da000020 	ble	9f00 <.text+0x1ee0>
    9e7c:	e2855001 	add	r5, r5, #1	; 0x1
    9e80:	e28d1e67 	add	r1, sp, #1648	; 0x670
    9e84:	e2866010 	add	r6, r6, #16	; 0x10
    9e88:	e3a03010 	mov	r3, #16	; 0x10
    9e8c:	e3550007 	cmp	r5, #7	; 0x7
    9e90:	e5843004 	str	r3, [r4, #4]
    9e94:	e5849000 	str	r9, [r4]
    9e98:	e1a0000a 	mov	r0, sl
    9e9c:	e2811008 	add	r1, r1, #8	; 0x8
    9ea0:	e2844008 	add	r4, r4, #8	; 0x8
    9ea4:	e58d6680 	str	r6, [sp, #1664]
    9ea8:	e58d567c 	str	r5, [sp, #1660]
    9eac:	daffffef 	ble	9e70 <.text+0x1e50>
    9eb0:	ebfffb2a 	bl	8b60 <__sprint>
    9eb4:	e3500000 	cmp	r0, #0	; 0x0
    9eb8:	1afffc26 	bne	8f58 <.text+0xf38>
    9ebc:	e59d6680 	ldr	r6, [sp, #1664]
    9ec0:	e59d567c 	ldr	r5, [sp, #1660]
    9ec4:	e28d4e61 	add	r4, sp, #1552	; 0x610
    9ec8:	eaffffe8 	b	9e70 <.text+0x1e50>
    9ecc:	e59d4054 	ldr	r4, [sp, #84]
    9ed0:	e2143040 	ands	r3, r4, #64	; 0x40
    9ed4:	15993000 	ldrne	r3, [r9]
    9ed8:	05991000 	ldreq	r1, [r9]
    9edc:	11a03803 	movne	r3, r3, lsl #16
    9ee0:	12899004 	addne	r9, r9, #4	; 0x4
    9ee4:	02899004 	addeq	r9, r9, #4	; 0x4
    9ee8:	11a01823 	movne	r1, r3, lsr #16
    9eec:	01a02003 	moveq	r2, r3
    9ef0:	158d9050 	strne	r9, [sp, #80]
    9ef4:	058d9050 	streq	r9, [sp, #80]
    9ef8:	eafffc52 	b	9048 <.text+0x1028>
    9efc:	e59f90f0 	ldr	r9, [pc, #240]	; 9ff4 <.text+0x1fd4>
    9f00:	e2855001 	add	r5, r5, #1	; 0x1
    9f04:	e0866007 	add	r6, r6, r7
    9f08:	e3550007 	cmp	r5, #7	; 0x7
    9f0c:	e5849000 	str	r9, [r4]
    9f10:	e5847004 	str	r7, [r4, #4]
    9f14:	e58d6680 	str	r6, [sp, #1664]
    9f18:	e58d567c 	str	r5, [sp, #1660]
    9f1c:	daffff9e 	ble	9d9c <.text+0x1d7c>
    9f20:	e28d1e67 	add	r1, sp, #1648	; 0x670
    9f24:	e1a0000a 	mov	r0, sl
    9f28:	e2811008 	add	r1, r1, #8	; 0x8
    9f2c:	ebfffb0b 	bl	8b60 <__sprint>
    9f30:	e3500000 	cmp	r0, #0	; 0x0
    9f34:	1afffc07 	bne	8f58 <.text+0xf38>
    9f38:	e59d6680 	ldr	r6, [sp, #1664]
    9f3c:	e59d567c 	ldr	r5, [sp, #1660]
    9f40:	e28d4e61 	add	r4, sp, #1552	; 0x610
    9f44:	eaffff95 	b	9da0 <.text+0x1d80>
    9f48:	e28d1e67 	add	r1, sp, #1648	; 0x670
    9f4c:	e1a0000a 	mov	r0, sl
    9f50:	e2811008 	add	r1, r1, #8	; 0x8
    9f54:	ebfffb01 	bl	8b60 <__sprint>
    9f58:	e3500000 	cmp	r0, #0	; 0x0
    9f5c:	1afffbfd 	bne	8f58 <.text+0xf38>
    9f60:	e59d6680 	ldr	r6, [sp, #1664]
    9f64:	e59d567c 	ldr	r5, [sp, #1660]
    9f68:	e28d4e61 	add	r4, sp, #1552	; 0x610
    9f6c:	eaffff77 	b	9d50 <.text+0x1d30>
    9f70:	e59d5054 	ldr	r5, [sp, #84]
    9f74:	e3150001 	tst	r5, #1	; 0x1
    9f78:	0afffd91 	beq	95c4 <.text+0x15a4>
    9f7c:	eaffff03 	b	9b90 <.text+0x1b70>
    9f80:	e899000c 	ldmia	r9, {r2, r3}
    9f84:	e2899008 	add	r9, r9, #8	; 0x8
    9f88:	e58d2048 	str	r2, [sp, #72]
    9f8c:	e58d304c 	str	r3, [sp, #76]
    9f90:	e58d9050 	str	r9, [sp, #80]
    9f94:	eafffd02 	b	93a4 <.text+0x1384>
    9f98:	e2833020 	add	r3, r3, #32	; 0x20
    9f9c:	e5cd36af 	strb	r3, [sp, #1711]
    9fa0:	e59d2018 	ldr	r2, [sp, #24]
    9fa4:	e5d23000 	ldrb	r3, [r2]
    9fa8:	eafffb7a 	b	8d98 <_vfprintf_r+0x1f8>
    9fac:	e5993000 	ldr	r3, [r9]
    9fb0:	e1a03803 	mov	r3, r3, lsl #16
    9fb4:	e2899004 	add	r9, r9, #4	; 0x4
    9fb8:	e1a01823 	mov	r1, r3, lsr #16
    9fbc:	e3a02001 	mov	r2, #1	; 0x1
    9fc0:	e58d9050 	str	r9, [sp, #80]
    9fc4:	eafffc1f 	b	9048 <.text+0x1028>
    9fc8:	000107b8 	streqh	r0, [r1], -r8
    9fcc:	000107a4 	andeq	r0, r1, r4, lsr #15
    9fd0:	00010798 	muleq	r1, r8, r7
    9fd4:	00010784 	andeq	r0, r1, r4, lsl #15
    9fd8:	cccccccd 	stcgtl	12, cr12, [ip], {205}
    9fdc:	000107dc 	ldreqd	r0, [r1], -ip
    9fe0:	000107d4 	ldreqd	r0, [r1], -r4
    9fe4:	0001079c 	muleq	r1, ip, r7
    9fe8:	000107d8 	ldreqd	r0, [r1], -r8
    9fec:	000107e0 	andeq	r0, r1, r0, ror #15
    9ff0:	000107f7 	streqd	r0, [r1], -r7
    9ff4:	000107e7 	andeq	r0, r1, r7, ror #15
    9ff8:	000107a0 	andeq	r0, r1, r0, lsr #15
    9ffc:	66666667 	strvsbt	r6, [r6], -r7, ror #12
    a000:	e5993000 	ldr	r3, [r9]
    a004:	e1a03803 	mov	r3, r3, lsl #16
    a008:	e2899004 	add	r9, r9, #4	; 0x4
    a00c:	e1a01843 	mov	r1, r3, asr #16
    a010:	e58d9050 	str	r9, [sp, #80]
    a014:	eafffbe7 	b	8fb8 <.text+0xf98>
    a018:	e5993000 	ldr	r3, [r9]
    a01c:	e1a03803 	mov	r3, r3, lsl #16
    a020:	e2899004 	add	r9, r9, #4	; 0x4
    a024:	e1a01823 	mov	r1, r3, lsr #16
    a028:	e58d9050 	str	r9, [sp, #80]
    a02c:	eafffca5 	b	92c8 <.text+0x12a8>
    a030:	e5993000 	ldr	r3, [r9]
    a034:	e2899004 	add	r9, r9, #4	; 0x4
    a038:	e58d9050 	str	r9, [sp, #80]
    a03c:	e59d4020 	ldr	r4, [sp, #32]
    a040:	e59d9050 	ldr	r9, [sp, #80]
    a044:	e5834000 	str	r4, [r3]
    a048:	eafffb29 	b	8cf4 <_vfprintf_r+0x154>
    a04c:	e2855001 	add	r5, r5, #1	; 0x1
    a050:	e59d101c 	ldr	r1, [sp, #28]
    a054:	e086600c 	add	r6, r6, ip
    a058:	e3550007 	cmp	r5, #7	; 0x7
    a05c:	e8881002 	stmia	r8, {r1, ip}
    a060:	e58d6680 	str	r6, [sp, #1664]
    a064:	e58d567c 	str	r5, [sp, #1660]
    a068:	d288c008 	addle	ip, r8, #8	; 0x8
    a06c:	ca000197 	bgt	a6d0 <.text+0x26b0>
    a070:	e59d2034 	ldr	r2, [sp, #52]
    a074:	e0624000 	rsb	r4, r2, r0
    a078:	e3540000 	cmp	r4, #0	; 0x0
    a07c:	da00004b 	ble	a1b0 <.text+0x2190>
    a080:	e3540010 	cmp	r4, #16	; 0x10
    a084:	da000036 	ble	a164 <.text+0x2144>
    a088:	e59d567c 	ldr	r5, [sp, #1660]
    a08c:	e51f90a0 	ldr	r9, [pc, #-160]	; 9ff4 <.text+0x1fd4>
    a090:	ea000002 	b	a0a0 <.text+0x2080>
    a094:	e2444010 	sub	r4, r4, #16	; 0x10
    a098:	e3540010 	cmp	r4, #16	; 0x10
    a09c:	da000032 	ble	a16c <.text+0x214c>
    a0a0:	e2855001 	add	r5, r5, #1	; 0x1
    a0a4:	e28d1e67 	add	r1, sp, #1648	; 0x670
    a0a8:	e2866010 	add	r6, r6, #16	; 0x10
    a0ac:	e3a03010 	mov	r3, #16	; 0x10
    a0b0:	e3550007 	cmp	r5, #7	; 0x7
    a0b4:	e58c3004 	str	r3, [ip, #4]
    a0b8:	e58c9000 	str	r9, [ip]
    a0bc:	e1a0000a 	mov	r0, sl
    a0c0:	e2811008 	add	r1, r1, #8	; 0x8
    a0c4:	e28cc008 	add	ip, ip, #8	; 0x8
    a0c8:	e58d6680 	str	r6, [sp, #1664]
    a0cc:	e58d567c 	str	r5, [sp, #1660]
    a0d0:	daffffef 	ble	a094 <.text+0x2074>
    a0d4:	ebfffaa1 	bl	8b60 <__sprint>
    a0d8:	e3500000 	cmp	r0, #0	; 0x0
    a0dc:	1afffb9d 	bne	8f58 <.text+0xf38>
    a0e0:	e59d6680 	ldr	r6, [sp, #1664]
    a0e4:	e59d567c 	ldr	r5, [sp, #1660]
    a0e8:	e28dce61 	add	ip, sp, #1552	; 0x610
    a0ec:	eaffffe8 	b	a094 <.text+0x2074>
    a0f0:	e5993000 	ldr	r3, [r9]
    a0f4:	e28d5e45 	add	r5, sp, #1104	; 0x450
    a0f8:	e2899004 	add	r9, r9, #4	; 0x4
    a0fc:	e3a0b001 	mov	fp, #1	; 0x1
    a100:	e2855008 	add	r5, r5, #8	; 0x8
    a104:	e5cd3458 	strb	r3, [sp, #1112]
    a108:	e58d9050 	str	r9, [sp, #80]
    a10c:	eafffc8e 	b	934c <.text+0x132c>
    a110:	e3560000 	cmp	r6, #0	; 0x0
    a114:	03a06001 	moveq	r6, #1	; 0x1
    a118:	eafffc99 	b	9384 <.text+0x1364>
    a11c:	e3560000 	cmp	r6, #0	; 0x0
    a120:	ba000187 	blt	a744 <.text+0x2724>
    a124:	e59d001c 	ldr	r0, [sp, #28]
    a128:	e1a01005 	mov	r1, r5
    a12c:	e1a02006 	mov	r2, r6
    a130:	eb000fb5 	bl	e00c <memchr>
    a134:	e3500000 	cmp	r0, #0	; 0x0
    a138:	0a0001f6 	beq	a918 <.text+0x28f8>
    a13c:	e59d201c 	ldr	r2, [sp, #28]
    a140:	e062b000 	rsb	fp, r2, r0
    a144:	e156000b 	cmp	r6, fp
    a148:	ba00016c 	blt	a700 <.text+0x26e0>
    a14c:	e35b0000 	cmp	fp, #0	; 0x0
    a150:	a1a0300b 	movge	r3, fp
    a154:	b3a03000 	movlt	r3, #0	; 0x0
    a158:	e58d303c 	str	r3, [sp, #60]
    a15c:	e58d5038 	str	r5, [sp, #56]
    a160:	eafffbdb 	b	90d4 <.text+0x10b4>
    a164:	e59d567c 	ldr	r5, [sp, #1660]
    a168:	e51f917c 	ldr	r9, [pc, #-380]	; 9ff4 <.text+0x1fd4>
    a16c:	e2855001 	add	r5, r5, #1	; 0x1
    a170:	e0866004 	add	r6, r6, r4
    a174:	e3550007 	cmp	r5, #7	; 0x7
    a178:	e58c9000 	str	r9, [ip]
    a17c:	e58c4004 	str	r4, [ip, #4]
    a180:	e58d6680 	str	r6, [sp, #1664]
    a184:	e58d567c 	str	r5, [sp, #1660]
    a188:	d28cc008 	addle	ip, ip, #8	; 0x8
    a18c:	da000007 	ble	a1b0 <.text+0x2190>
    a190:	e28d1e67 	add	r1, sp, #1648	; 0x670
    a194:	e1a0000a 	mov	r0, sl
    a198:	e2811008 	add	r1, r1, #8	; 0x8
    a19c:	ebfffa6f 	bl	8b60 <__sprint>
    a1a0:	e3500000 	cmp	r0, #0	; 0x0
    a1a4:	1afffb6b 	bne	8f58 <.text+0xf38>
    a1a8:	e59d6680 	ldr	r6, [sp, #1664]
    a1ac:	e28dce61 	add	ip, sp, #1552	; 0x610
    a1b0:	e59d3054 	ldr	r3, [sp, #84]
    a1b4:	e3130001 	tst	r3, #1	; 0x1
    a1b8:	0afffd01 	beq	95c4 <.text+0x15a4>
    a1bc:	e59d567c 	ldr	r5, [sp, #1660]
    a1c0:	e51f31ec 	ldr	r3, [pc, #-492]	; 9fdc <.text+0x1fbc>
    a1c4:	e2855001 	add	r5, r5, #1	; 0x1
    a1c8:	e2866001 	add	r6, r6, #1	; 0x1
    a1cc:	e3a02001 	mov	r2, #1	; 0x1
    a1d0:	e3550007 	cmp	r5, #7	; 0x7
    a1d4:	e58c3000 	str	r3, [ip]
    a1d8:	e58c2004 	str	r2, [ip, #4]
    a1dc:	e58d6680 	str	r6, [sp, #1664]
    a1e0:	e58d567c 	str	r5, [sp, #1660]
    a1e4:	cafffebd 	bgt	9ce0 <.text+0x1cc0>
    a1e8:	e28cc008 	add	ip, ip, #8	; 0x8
    a1ec:	eafffcf4 	b	95c4 <.text+0x15a4>
    a1f0:	e28d0e5b 	add	r0, sp, #1456	; 0x5b0
    a1f4:	e2800004 	add	r0, r0, #4	; 0x4
    a1f8:	e59d5040 	ldr	r5, [sp, #64]
    a1fc:	e201300f 	and	r3, r1, #15	; 0xf
    a200:	e7d52003 	ldrb	r2, [r5, r3]
    a204:	e1b01221 	movs	r1, r1, lsr #4
    a208:	e5602001 	strb	r2, [r0, #-1]!
    a20c:	1afffff9 	bne	a1f8 <.text+0x21d8>
    a210:	e58d001c 	str	r0, [sp, #28]
    a214:	eafffba4 	b	90ac <.text+0x108c>
    a218:	e59d567c 	ldr	r5, [sp, #1660]
    a21c:	e51f9230 	ldr	r9, [pc, #-560]	; 9ff4 <.text+0x1fd4>
    a220:	e2855001 	add	r5, r5, #1	; 0x1
    a224:	e0866004 	add	r6, r6, r4
    a228:	e3550007 	cmp	r5, #7	; 0x7
    a22c:	e58c9000 	str	r9, [ip]
    a230:	e58c4004 	str	r4, [ip, #4]
    a234:	e58d6680 	str	r6, [sp, #1664]
    a238:	e58d567c 	str	r5, [sp, #1660]
    a23c:	cafffea7 	bgt	9ce0 <.text+0x1cc0>
    a240:	e28cc008 	add	ip, ip, #8	; 0x8
    a244:	eafffcde 	b	95c4 <.text+0x15a4>
    a248:	e59d3054 	ldr	r3, [sp, #84]
    a24c:	e3130001 	tst	r3, #1	; 0x1
    a250:	1afffeae 	bne	9d10 <.text+0x1cf0>
    a254:	e2855001 	add	r5, r5, #1	; 0x1
    a258:	e59d201c 	ldr	r2, [sp, #28]
    a25c:	e2866001 	add	r6, r6, #1	; 0x1
    a260:	e3550007 	cmp	r5, #7	; 0x7
    a264:	e3a03001 	mov	r3, #1	; 0x1
    a268:	e888000c 	stmia	r8, {r2, r3}
    a26c:	e58d6680 	str	r6, [sp, #1664]
    a270:	e58d567c 	str	r5, [sp, #1660]
    a274:	d2884008 	addle	r4, r8, #8	; 0x8
    a278:	dafffec8 	ble	9da0 <.text+0x1d80>
    a27c:	eaffff27 	b	9f20 <.text+0x1f00>
    a280:	e51f9294 	ldr	r9, [pc, #-660]	; 9ff4 <.text+0x1fd4>
    a284:	eafffcb0 	b	954c <.text+0x152c>
    a288:	e3a04003 	mov	r4, #3	; 0x3
    a28c:	e51f52b4 	ldr	r5, [pc, #-692]	; 9fe0 <.text+0x1fc0>
    a290:	e3a0c000 	mov	ip, #0	; 0x0
    a294:	e1a0b004 	mov	fp, r4
    a298:	e58d403c 	str	r4, [sp, #60]
    a29c:	e58d501c 	str	r5, [sp, #28]
    a2a0:	e58dc038 	str	ip, [sp, #56]
    a2a4:	eafffb8a 	b	90d4 <.text+0x10b4>
    a2a8:	e28d1e67 	add	r1, sp, #1648	; 0x670
    a2ac:	e1a0000a 	mov	r0, sl
    a2b0:	e2811008 	add	r1, r1, #8	; 0x8
    a2b4:	ebfffa29 	bl	8b60 <__sprint>
    a2b8:	e3500000 	cmp	r0, #0	; 0x0
    a2bc:	1afffb25 	bne	8f58 <.text+0xf38>
    a2c0:	e59d6680 	ldr	r6, [sp, #1664]
    a2c4:	e28dce61 	add	ip, sp, #1552	; 0x610
    a2c8:	eafffe2c 	b	9b80 <.text+0x1b60>
    a2cc:	e28d0048 	add	r0, sp, #72	; 0x48
    a2d0:	e8900003 	ldmia	r0, {r0, r1}
    a2d4:	eb001480 	bl	f4dc <isnan>
    a2d8:	e3500000 	cmp	r0, #0	; 0x0
    a2dc:	0a000059 	beq	a448 <.text+0x2428>
    a2e0:	e2473045 	sub	r3, r7, #69	; 0x45
    a2e4:	e3530002 	cmp	r3, #2	; 0x2
    a2e8:	8a00011e 	bhi	a768 <.text+0x2748>
    a2ec:	e3a0c003 	mov	ip, #3	; 0x3
    a2f0:	e51f1314 	ldr	r1, [pc, #-788]	; 9fe4 <.text+0x1fc4>
    a2f4:	e1a0b00c 	mov	fp, ip
    a2f8:	e58dc03c 	str	ip, [sp, #60]
    a2fc:	e58d101c 	str	r1, [sp, #28]
    a300:	e58d4038 	str	r4, [sp, #56]
    a304:	eafffb72 	b	90d4 <.text+0x10b4>
    a308:	e28d1e67 	add	r1, sp, #1648	; 0x670
    a30c:	e1a0000a 	mov	r0, sl
    a310:	e2811008 	add	r1, r1, #8	; 0x8
    a314:	ebfffa11 	bl	8b60 <__sprint>
    a318:	e3500000 	cmp	r0, #0	; 0x0
    a31c:	1afffb0d 	bne	8f58 <.text+0xf38>
    a320:	e59d6680 	ldr	r6, [sp, #1664]
    a324:	e28dce61 	add	ip, sp, #1552	; 0x610
    a328:	eafffe24 	b	9bc0 <.text+0x1ba0>
    a32c:	e59d6680 	ldr	r6, [sp, #1664]
    a330:	e59d567c 	ldr	r5, [sp, #1660]
    a334:	e51f934c 	ldr	r9, [pc, #-844]	; 9ff0 <.text+0x1fd0>
    a338:	eafffb93 	b	918c <.text+0x116c>
    a33c:	e2855001 	add	r5, r5, #1	; 0x1
    a340:	e51f3360 	ldr	r3, [pc, #-864]	; 9fe8 <.text+0x1fc8>
    a344:	e3550007 	cmp	r5, #7	; 0x7
    a348:	e2866001 	add	r6, r6, #1	; 0x1
    a34c:	e3a02001 	mov	r2, #1	; 0x1
    a350:	e5883000 	str	r3, [r8]
    a354:	e5882004 	str	r2, [r8, #4]
    a358:	e58d6680 	str	r6, [sp, #1664]
    a35c:	e58d567c 	str	r5, [sp, #1660]
    a360:	d288c008 	addle	ip, r8, #8	; 0x8
    a364:	ca0000ec 	bgt	a71c <.text+0x26fc>
    a368:	e3500000 	cmp	r0, #0	; 0x0
    a36c:	1a000002 	bne	a37c <.text+0x235c>
    a370:	e59d2034 	ldr	r2, [sp, #52]
    a374:	e3520000 	cmp	r2, #0	; 0x0
    a378:	0afffc91 	beq	95c4 <.text+0x15a4>
    a37c:	e59d567c 	ldr	r5, [sp, #1660]
    a380:	e3a03001 	mov	r3, #1	; 0x1
    a384:	e2855001 	add	r5, r5, #1	; 0x1
    a388:	e58c3004 	str	r3, [ip, #4]
    a38c:	e59d3028 	ldr	r3, [sp, #40]
    a390:	e2866001 	add	r6, r6, #1	; 0x1
    a394:	e3550007 	cmp	r5, #7	; 0x7
    a398:	e58c3000 	str	r3, [ip]
    a39c:	e58d6680 	str	r6, [sp, #1664]
    a3a0:	e58d567c 	str	r5, [sp, #1660]
    a3a4:	d28c2008 	addle	r2, ip, #8	; 0x8
    a3a8:	ca00014f 	bgt	a8ec <.text+0x28cc>
    a3ac:	e2604000 	rsb	r4, r0, #0	; 0x0
    a3b0:	e3540000 	cmp	r4, #0	; 0x0
    a3b4:	da0000a3 	ble	a648 <.text+0x2628>
    a3b8:	e3540010 	cmp	r4, #16	; 0x10
    a3bc:	da00008e 	ble	a5fc <.text+0x25dc>
    a3c0:	e51f93d4 	ldr	r9, [pc, #-980]	; 9ff4 <.text+0x1fd4>
    a3c4:	ea000002 	b	a3d4 <.text+0x23b4>
    a3c8:	e2444010 	sub	r4, r4, #16	; 0x10
    a3cc:	e3540010 	cmp	r4, #16	; 0x10
    a3d0:	da00008a 	ble	a600 <.text+0x25e0>
    a3d4:	e2855001 	add	r5, r5, #1	; 0x1
    a3d8:	e28d1e67 	add	r1, sp, #1648	; 0x670
    a3dc:	e2866010 	add	r6, r6, #16	; 0x10
    a3e0:	e3a03010 	mov	r3, #16	; 0x10
    a3e4:	e3550007 	cmp	r5, #7	; 0x7
    a3e8:	e5823004 	str	r3, [r2, #4]
    a3ec:	e5829000 	str	r9, [r2]
    a3f0:	e1a0000a 	mov	r0, sl
    a3f4:	e2811008 	add	r1, r1, #8	; 0x8
    a3f8:	e2822008 	add	r2, r2, #8	; 0x8
    a3fc:	e58d6680 	str	r6, [sp, #1664]
    a400:	e58d567c 	str	r5, [sp, #1660]
    a404:	daffffef 	ble	a3c8 <.text+0x23a8>
    a408:	ebfff9d4 	bl	8b60 <__sprint>
    a40c:	e3500000 	cmp	r0, #0	; 0x0
    a410:	1afffad0 	bne	8f58 <.text+0xf38>
    a414:	e59d6680 	ldr	r6, [sp, #1664]
    a418:	e59d567c 	ldr	r5, [sp, #1660]
    a41c:	e28d2e61 	add	r2, sp, #1552	; 0x610
    a420:	eaffffe8 	b	a3c8 <.text+0x23a8>
    a424:	e3a03006 	mov	r3, #6	; 0x6
    a428:	e51f4444 	ldr	r4, [pc, #-1092]	; 9fec <.text+0x1fcc>
    a42c:	e1a0b003 	mov	fp, r3
    a430:	e58d303c 	str	r3, [sp, #60]
    a434:	e58d401c 	str	r4, [sp, #28]
    a438:	eafffc03 	b	944c <.text+0x142c>
    a43c:	e59d567c 	ldr	r5, [sp, #1660]
    a440:	e51f9458 	ldr	r9, [pc, #-1112]	; 9ff0 <.text+0x1fd0>
    a444:	eafffc84 	b	965c <.text+0x163c>
    a448:	e59d4054 	ldr	r4, [sp, #84]
    a44c:	e3570066 	cmp	r7, #102	; 0x66
    a450:	e3844c01 	orr	r4, r4, #256	; 0x100
    a454:	e58d4054 	str	r4, [sp, #84]
    a458:	01a0b006 	moveq	fp, r6
    a45c:	03a02003 	moveq	r2, #3	; 0x3
    a460:	0a000005 	beq	a47c <.text+0x245c>
    a464:	e3570045 	cmp	r7, #69	; 0x45
    a468:	13570065 	cmpne	r7, #101	; 0x65
    a46c:	11a0b006 	movne	fp, r6
    a470:	13a02002 	movne	r2, #2	; 0x2
    a474:	0286b001 	addeq	fp, r6, #1	; 0x1
    a478:	03a02002 	moveq	r2, #2	; 0x2
    a47c:	e28d3048 	add	r3, sp, #72	; 0x48
    a480:	e8930018 	ldmia	r3, {r3, r4}
    a484:	e3530000 	cmp	r3, #0	; 0x0
    a488:	a3a0c000 	movge	ip, #0	; 0x0
    a48c:	b59d1048 	ldrlt	r1, [sp, #72]
    a490:	b59d304c 	ldrlt	r3, [sp, #76]
    a494:	b3a0c02d 	movlt	ip, #45	; 0x2d
    a498:	a58dc02c 	strge	ip, [sp, #44]
    a49c:	b58dc02c 	strlt	ip, [sp, #44]
    a4a0:	e28dce69 	add	ip, sp, #1680	; 0x690
    a4a4:	a1a05004 	movge	r5, r4
    a4a8:	b1a05003 	movlt	r5, r3
    a4ac:	a1a04003 	movge	r4, r3
    a4b0:	b2814102 	addlt	r4, r1, #-2147483648	; 0x80000000
    a4b4:	e28cc00c 	add	ip, ip, #12	; 0xc
    a4b8:	e28dee6a 	add	lr, sp, #1696	; 0x6a0
    a4bc:	e1a03002 	mov	r3, r2
    a4c0:	e58dc004 	str	ip, [sp, #4]
    a4c4:	e28ee008 	add	lr, lr, #8	; 0x8
    a4c8:	e28dce6a 	add	ip, sp, #1696	; 0x6a0
    a4cc:	e59d0010 	ldr	r0, [sp, #16]
    a4d0:	e1a01004 	mov	r1, r4
    a4d4:	e1a02005 	mov	r2, r5
    a4d8:	e58de008 	str	lr, [sp, #8]
    a4dc:	e58dc00c 	str	ip, [sp, #12]
    a4e0:	e58db000 	str	fp, [sp]
    a4e4:	eb00044e 	bl	b624 <_dtoa_r>
    a4e8:	e3570067 	cmp	r7, #103	; 0x67
    a4ec:	13570047 	cmpne	r7, #71	; 0x47
    a4f0:	e58d001c 	str	r0, [sp, #28]
    a4f4:	1a000003 	bne	a508 <.text+0x24e8>
    a4f8:	e59d1054 	ldr	r1, [sp, #84]
    a4fc:	e3110001 	tst	r1, #1	; 0x1
    a500:	059d26a0 	ldreq	r2, [sp, #1696]
    a504:	0a000019 	beq	a570 <.text+0x2550>
    a508:	e59d201c 	ldr	r2, [sp, #28]
    a50c:	e3570066 	cmp	r7, #102	; 0x66
    a510:	e082900b 	add	r9, r2, fp
    a514:	0a00012d 	beq	a9d0 <.text+0x29b0>
    a518:	e3a02000 	mov	r2, #0	; 0x0
    a51c:	e1a00004 	mov	r0, r4
    a520:	e1a01005 	mov	r1, r5
    a524:	e3a03000 	mov	r3, #0	; 0x0
    a528:	eb00181f 	bl	105ac <__cmpdf2>
    a52c:	e3500000 	cmp	r0, #0	; 0x0
    a530:	01a02009 	moveq	r2, r9
    a534:	058d26a0 	streq	r2, [sp, #1696]
    a538:	0a00000c 	beq	a570 <.text+0x2550>
    a53c:	e59d26a0 	ldr	r2, [sp, #1696]
    a540:	e1590002 	cmp	r9, r2
    a544:	9a000009 	bls	a570 <.text+0x2550>
    a548:	e0623009 	rsb	r3, r2, r9
    a54c:	e0823003 	add	r3, r2, r3
    a550:	e2821001 	add	r1, r2, #1	; 0x1
    a554:	e3a00030 	mov	r0, #48	; 0x30
    a558:	e1510003 	cmp	r1, r3
    a55c:	e5410001 	strb	r0, [r1, #-1]
    a560:	e1a02001 	mov	r2, r1
    a564:	e58d16a0 	str	r1, [sp, #1696]
    a568:	e2811001 	add	r1, r1, #1	; 0x1
    a56c:	1afffff9 	bne	a558 <.text+0x2538>
    a570:	e59d401c 	ldr	r4, [sp, #28]
    a574:	e3570067 	cmp	r7, #103	; 0x67
    a578:	13a03000 	movne	r3, #0	; 0x0
    a57c:	03a03001 	moveq	r3, #1	; 0x1
    a580:	e3570067 	cmp	r7, #103	; 0x67
    a584:	13570047 	cmpne	r7, #71	; 0x47
    a588:	e0645002 	rsb	r5, r4, r2
    a58c:	1a000082 	bne	a79c <.text+0x277c>
    a590:	e59d069c 	ldr	r0, [sp, #1692]
    a594:	e3700004 	cmn	r0, #4	; 0x4
    a598:	da0000bd 	ble	a894 <.text+0x2874>
    a59c:	e1560000 	cmp	r6, r0
    a5a0:	a3a07067 	movge	r7, #103	; 0x67
    a5a4:	ba0000ba 	blt	a894 <.text+0x2874>
    a5a8:	e1550000 	cmp	r5, r0
    a5ac:	e1a0b000 	mov	fp, r0
    a5b0:	ca0000fd 	bgt	a9ac <.text+0x298c>
    a5b4:	e59d1054 	ldr	r1, [sp, #84]
    a5b8:	e3110001 	tst	r1, #1	; 0x1
    a5bc:	1280b001 	addne	fp, r0, #1	; 0x1
    a5c0:	1a0000f4 	bne	a998 <.text+0x2978>
    a5c4:	e35b0000 	cmp	fp, #0	; 0x0
    a5c8:	a1a0200b 	movge	r2, fp
    a5cc:	b3a02000 	movlt	r2, #0	; 0x0
    a5d0:	e58d203c 	str	r2, [sp, #60]
    a5d4:	e59dc02c 	ldr	ip, [sp, #44]
    a5d8:	e35c0000 	cmp	ip, #0	; 0x0
    a5dc:	1a000068 	bne	a784 <.text+0x2764>
    a5e0:	e35b0000 	cmp	fp, #0	; 0x0
    a5e4:	a1a0100b 	movge	r1, fp
    a5e8:	b3a01000 	movlt	r1, #0	; 0x0
    a5ec:	e58d103c 	str	r1, [sp, #60]
    a5f0:	e58d5034 	str	r5, [sp, #52]
    a5f4:	e58dc038 	str	ip, [sp, #56]
    a5f8:	eafffab5 	b	90d4 <.text+0x10b4>
    a5fc:	e51f9610 	ldr	r9, [pc, #-1552]	; 9ff4 <.text+0x1fd4>
    a600:	e2855001 	add	r5, r5, #1	; 0x1
    a604:	e0866004 	add	r6, r6, r4
    a608:	e3550007 	cmp	r5, #7	; 0x7
    a60c:	e5829000 	str	r9, [r2]
    a610:	e5824004 	str	r4, [r2, #4]
    a614:	e58d6680 	str	r6, [sp, #1664]
    a618:	e58d567c 	str	r5, [sp, #1660]
    a61c:	d2822008 	addle	r2, r2, #8	; 0x8
    a620:	da000008 	ble	a648 <.text+0x2628>
    a624:	e28d1e67 	add	r1, sp, #1648	; 0x670
    a628:	e1a0000a 	mov	r0, sl
    a62c:	e2811008 	add	r1, r1, #8	; 0x8
    a630:	ebfff94a 	bl	8b60 <__sprint>
    a634:	e3500000 	cmp	r0, #0	; 0x0
    a638:	1afffa46 	bne	8f58 <.text+0xf38>
    a63c:	e59d6680 	ldr	r6, [sp, #1664]
    a640:	e59d567c 	ldr	r5, [sp, #1660]
    a644:	e28d2e61 	add	r2, sp, #1552	; 0x610
    a648:	e59d4034 	ldr	r4, [sp, #52]
    a64c:	e2855001 	add	r5, r5, #1	; 0x1
    a650:	e59d801c 	ldr	r8, [sp, #28]
    a654:	e3550007 	cmp	r5, #7	; 0x7
    a658:	e0866004 	add	r6, r6, r4
    a65c:	e5828000 	str	r8, [r2]
    a660:	e5824004 	str	r4, [r2, #4]
    a664:	e58d6680 	str	r6, [sp, #1664]
    a668:	e58d567c 	str	r5, [sp, #1660]
    a66c:	d282c008 	addle	ip, r2, #8	; 0x8
    a670:	dafffbd3 	ble	95c4 <.text+0x15a4>
    a674:	eafffd99 	b	9ce0 <.text+0x1cc0>
    a678:	e28d1e67 	add	r1, sp, #1648	; 0x670
    a67c:	e1a0000a 	mov	r0, sl
    a680:	e2811008 	add	r1, r1, #8	; 0x8
    a684:	ebfff935 	bl	8b60 <__sprint>
    a688:	e3500000 	cmp	r0, #0	; 0x0
    a68c:	1afffa31 	bne	8f58 <.text+0xf38>
    a690:	e59d6680 	ldr	r6, [sp, #1664]
    a694:	e59d567c 	ldr	r5, [sp, #1660]
    a698:	e59d069c 	ldr	r0, [sp, #1692]
    a69c:	e28dce61 	add	ip, sp, #1552	; 0x610
    a6a0:	eafffd82 	b	9cb0 <.text+0x1c90>
    a6a4:	e28d1e67 	add	r1, sp, #1648	; 0x670
    a6a8:	e1a0000a 	mov	r0, sl
    a6ac:	e2811008 	add	r1, r1, #8	; 0x8
    a6b0:	ebfff92a 	bl	8b60 <__sprint>
    a6b4:	e3500000 	cmp	r0, #0	; 0x0
    a6b8:	1afffa26 	bne	8f58 <.text+0xf38>
    a6bc:	e59d6680 	ldr	r6, [sp, #1664]
    a6c0:	e59d567c 	ldr	r5, [sp, #1660]
    a6c4:	e59d069c 	ldr	r0, [sp, #1692]
    a6c8:	e28d1e61 	add	r1, sp, #1552	; 0x610
    a6cc:	eafffd6b 	b	9c80 <.text+0x1c60>
    a6d0:	e28d1e67 	add	r1, sp, #1648	; 0x670
    a6d4:	e1a0000a 	mov	r0, sl
    a6d8:	e2811008 	add	r1, r1, #8	; 0x8
    a6dc:	ebfff91f 	bl	8b60 <__sprint>
    a6e0:	e3500000 	cmp	r0, #0	; 0x0
    a6e4:	1afffa1b 	bne	8f58 <.text+0xf38>
    a6e8:	e59d6680 	ldr	r6, [sp, #1664]
    a6ec:	e59d069c 	ldr	r0, [sp, #1692]
    a6f0:	e28dce61 	add	ip, sp, #1552	; 0x610
    a6f4:	eafffe5d 	b	a070 <.text+0x2050>
    a6f8:	e51f970c 	ldr	r9, [pc, #-1804]	; 9ff4 <.text+0x1fd4>
    a6fc:	eafffce9 	b	9aa8 <.text+0x1a88>
    a700:	e3560000 	cmp	r6, #0	; 0x0
    a704:	a1a04006 	movge	r4, r6
    a708:	b3a04000 	movlt	r4, #0	; 0x0
    a70c:	e1a0b006 	mov	fp, r6
    a710:	e58d403c 	str	r4, [sp, #60]
    a714:	e58d5038 	str	r5, [sp, #56]
    a718:	eafffa6d 	b	90d4 <.text+0x10b4>
    a71c:	e28d1e67 	add	r1, sp, #1648	; 0x670
    a720:	e1a0000a 	mov	r0, sl
    a724:	e2811008 	add	r1, r1, #8	; 0x8
    a728:	ebfff90c 	bl	8b60 <__sprint>
    a72c:	e3500000 	cmp	r0, #0	; 0x0
    a730:	1afffa08 	bne	8f58 <.text+0xf38>
    a734:	e59d6680 	ldr	r6, [sp, #1664]
    a738:	e59d069c 	ldr	r0, [sp, #1692]
    a73c:	e28dce61 	add	ip, sp, #1552	; 0x610
    a740:	eaffff08 	b	a368 <.text+0x2348>
    a744:	e59d001c 	ldr	r0, [sp, #28]
    a748:	eb0013f1 	bl	f714 <strlen>
    a74c:	e3500000 	cmp	r0, #0	; 0x0
    a750:	a1a0c000 	movge	ip, r0
    a754:	b3a0c000 	movlt	ip, #0	; 0x0
    a758:	e1a0b000 	mov	fp, r0
    a75c:	e58dc03c 	str	ip, [sp, #60]
    a760:	e58d5038 	str	r5, [sp, #56]
    a764:	eafffa5a 	b	90d4 <.text+0x10b4>
    a768:	e3a02003 	mov	r2, #3	; 0x3
    a76c:	e51f377c 	ldr	r3, [pc, #-1916]	; 9ff8 <.text+0x1fd8>
    a770:	e1a0b002 	mov	fp, r2
    a774:	e58d203c 	str	r2, [sp, #60]
    a778:	e58d301c 	str	r3, [sp, #28]
    a77c:	e58d4038 	str	r4, [sp, #56]
    a780:	eafffa53 	b	90d4 <.text+0x10b4>
    a784:	e3a02000 	mov	r2, #0	; 0x0
    a788:	e3a0302d 	mov	r3, #45	; 0x2d
    a78c:	e58d5034 	str	r5, [sp, #52]
    a790:	e58d2038 	str	r2, [sp, #56]
    a794:	e5cd36af 	strb	r3, [sp, #1711]
    a798:	eafffa50 	b	90e0 <.text+0x10c0>
    a79c:	e3570065 	cmp	r7, #101	; 0x65
    a7a0:	ca000069 	bgt	a94c <.text+0x292c>
    a7a4:	e59d069c 	ldr	r0, [sp, #1692]
    a7a8:	e20730ff 	and	r3, r7, #255	; 0xff
    a7ac:	e2400001 	sub	r0, r0, #1	; 0x1
    a7b0:	e3500000 	cmp	r0, #0	; 0x0
    a7b4:	e5cd3695 	strb	r3, [sp, #1685]
    a7b8:	e1a0c000 	mov	ip, r0
    a7bc:	b3a0302d 	movlt	r3, #45	; 0x2d
    a7c0:	a3a0302b 	movge	r3, #43	; 0x2b
    a7c4:	b260c000 	rsblt	ip, r0, #0	; 0x0
    a7c8:	b5cd3696 	strltb	r3, [sp, #1686]
    a7cc:	a5cd3696 	strgeb	r3, [sp, #1686]
    a7d0:	e35c0009 	cmp	ip, #9	; 0x9
    a7d4:	d28c2030 	addle	r2, ip, #48	; 0x30
    a7d8:	d5cd2698 	strleb	r2, [sp, #1688]
    a7dc:	d3a03030 	movle	r3, #48	; 0x30
    a7e0:	d28d2e69 	addle	r2, sp, #1680	; 0x690
    a7e4:	e58d069c 	str	r0, [sp, #1692]
    a7e8:	d5cd3697 	strleb	r3, [sp, #1687]
    a7ec:	d2822009 	addle	r2, r2, #9	; 0x9
    a7f0:	da00001a 	ble	a860 <.text+0x2840>
    a7f4:	e28d4e67 	add	r4, sp, #1648	; 0x670
    a7f8:	e2844008 	add	r4, r4, #8	; 0x8
    a7fc:	e51f0808 	ldr	r0, [pc, #-2056]	; 9ffc <.text+0x1fdc>
    a800:	e1a0e004 	mov	lr, r4
    a804:	e0c31c90 	smull	r1, r3, r0, ip
    a808:	e1a02fcc 	mov	r2, ip, asr #31
    a80c:	e0622143 	rsb	r2, r2, r3, asr #2
    a810:	e0821102 	add	r1, r2, r2, lsl #2
    a814:	e04c1081 	sub	r1, ip, r1, lsl #1
    a818:	e2811030 	add	r1, r1, #48	; 0x30
    a81c:	e3520009 	cmp	r2, #9	; 0x9
    a820:	e1a0c002 	mov	ip, r2
    a824:	e56e1001 	strb	r1, [lr, #-1]!
    a828:	cafffff5 	bgt	a804 <.text+0x27e4>
    a82c:	e24e0001 	sub	r0, lr, #1	; 0x1
    a830:	e1500004 	cmp	r0, r4
    a834:	e2823030 	add	r3, r2, #48	; 0x30
    a838:	228d2e69 	addcs	r2, sp, #1680	; 0x690
    a83c:	e54e3001 	strb	r3, [lr, #-1]
    a840:	22822007 	addcs	r2, r2, #7	; 0x7
    a844:	2a000005 	bcs	a860 <.text+0x2840>
    a848:	e28d2e69 	add	r2, sp, #1680	; 0x690
    a84c:	e2822007 	add	r2, r2, #7	; 0x7
    a850:	e4d03001 	ldrb	r3, [r0], #1
    a854:	e1500004 	cmp	r0, r4
    a858:	e4c23001 	strb	r3, [r2], #1
    a85c:	3afffffb 	bcc	a850 <.text+0x2830>
    a860:	e28d3e69 	add	r3, sp, #1680	; 0x690
    a864:	e2833005 	add	r3, r3, #5	; 0x5
    a868:	e0632002 	rsb	r2, r3, r2
    a86c:	e3550001 	cmp	r5, #1	; 0x1
    a870:	e58d2030 	str	r2, [sp, #48]
    a874:	e085b002 	add	fp, r5, r2
    a878:	da000043 	ble	a98c <.text+0x296c>
    a87c:	e28bb001 	add	fp, fp, #1	; 0x1
    a880:	e35b0000 	cmp	fp, #0	; 0x0
    a884:	a1a0400b 	movge	r4, fp
    a888:	b3a04000 	movlt	r4, #0	; 0x0
    a88c:	e58d403c 	str	r4, [sp, #60]
    a890:	eaffff4f 	b	a5d4 <.text+0x25b4>
    a894:	e3530000 	cmp	r3, #0	; 0x0
    a898:	13a03065 	movne	r3, #101	; 0x65
    a89c:	11a07003 	movne	r7, r3
    a8a0:	03a03045 	moveq	r3, #69	; 0x45
    a8a4:	01a07003 	moveq	r7, r3
    a8a8:	eaffffbf 	b	a7ac <.text+0x278c>
    a8ac:	e3a01000 	mov	r1, #0	; 0x0
    a8b0:	e28d2e6a 	add	r2, sp, #1696	; 0x6a0
    a8b4:	e59d0010 	ldr	r0, [sp, #16]
    a8b8:	e2822004 	add	r2, r2, #4	; 0x4
    a8bc:	e1a03001 	mov	r3, r1
    a8c0:	e58d9000 	str	r9, [sp]
    a8c4:	eb0000a7 	bl	ab68 <_wcsrtombs_r>
    a8c8:	e3700001 	cmn	r0, #1	; 0x1
    a8cc:	e1a0b000 	mov	fp, r0
    a8d0:	159d401c 	ldrne	r4, [sp, #28]
    a8d4:	158d46a4 	strne	r4, [sp, #1700]
    a8d8:	1afffbc4 	bne	97f0 <.text+0x17d0>
    a8dc:	e1da30bc 	ldrh	r3, [sl, #12]
    a8e0:	e3833040 	orr	r3, r3, #64	; 0x40
    a8e4:	e1ca30bc 	strh	r3, [sl, #12]
    a8e8:	eafff9a0 	b	8f70 <.text+0xf50>
    a8ec:	e28d1e67 	add	r1, sp, #1648	; 0x670
    a8f0:	e1a0000a 	mov	r0, sl
    a8f4:	e2811008 	add	r1, r1, #8	; 0x8
    a8f8:	ebfff898 	bl	8b60 <__sprint>
    a8fc:	e3500000 	cmp	r0, #0	; 0x0
    a900:	1afff994 	bne	8f58 <.text+0xf38>
    a904:	e59d6680 	ldr	r6, [sp, #1664]
    a908:	e59d567c 	ldr	r5, [sp, #1660]
    a90c:	e59d069c 	ldr	r0, [sp, #1692]
    a910:	e28d2e61 	add	r2, sp, #1552	; 0x610
    a914:	eafffea4 	b	a3ac <.text+0x238c>
    a918:	e3560000 	cmp	r6, #0	; 0x0
    a91c:	a1a01006 	movge	r1, r6
    a920:	b3a01000 	movlt	r1, #0	; 0x0
    a924:	e1a0b006 	mov	fp, r6
    a928:	e58d103c 	str	r1, [sp, #60]
    a92c:	e58d0038 	str	r0, [sp, #56]
    a930:	eafff9e7 	b	90d4 <.text+0x10b4>
    a934:	e59d3680 	ldr	r3, [sp, #1664]
    a938:	e3530000 	cmp	r3, #0	; 0x0
    a93c:	1a000031 	bne	aa08 <.text+0x29e8>
    a940:	e3a03000 	mov	r3, #0	; 0x0
    a944:	e58d367c 	str	r3, [sp, #1660]
    a948:	eafff988 	b	8f70 <.text+0xf50>
    a94c:	e3570066 	cmp	r7, #102	; 0x66
    a950:	159d069c 	ldrne	r0, [sp, #1692]
    a954:	1affff13 	bne	a5a8 <.text+0x2588>
    a958:	e59db69c 	ldr	fp, [sp, #1692]
    a95c:	e35b0000 	cmp	fp, #0	; 0x0
    a960:	da00003e 	ble	aa60 <.text+0x2a40>
    a964:	e3560000 	cmp	r6, #0	; 0x0
    a968:	1a00002d 	bne	aa24 <.text+0x2a04>
    a96c:	e59dc054 	ldr	ip, [sp, #84]
    a970:	e31c0001 	tst	ip, #1	; 0x1
    a974:	1a00002a 	bne	aa24 <.text+0x2a04>
    a978:	e35b0000 	cmp	fp, #0	; 0x0
    a97c:	a1a0100b 	movge	r1, fp
    a980:	b3a01000 	movlt	r1, #0	; 0x0
    a984:	e58d103c 	str	r1, [sp, #60]
    a988:	eaffff11 	b	a5d4 <.text+0x25b4>
    a98c:	e59d2054 	ldr	r2, [sp, #84]
    a990:	e3120001 	tst	r2, #1	; 0x1
    a994:	1affffb8 	bne	a87c <.text+0x285c>
    a998:	e35b0000 	cmp	fp, #0	; 0x0
    a99c:	a1a0300b 	movge	r3, fp
    a9a0:	b3a03000 	movlt	r3, #0	; 0x0
    a9a4:	e58d303c 	str	r3, [sp, #60]
    a9a8:	eaffff09 	b	a5d4 <.text+0x25b4>
    a9ac:	e3500000 	cmp	r0, #0	; 0x0
    a9b0:	c3a00001 	movgt	r0, #1	; 0x1
    a9b4:	d26b0002 	rsble	r0, fp, #2	; 0x2
    a9b8:	e080b005 	add	fp, r0, r5
    a9bc:	e35b0000 	cmp	fp, #0	; 0x0
    a9c0:	a1a0400b 	movge	r4, fp
    a9c4:	b3a04000 	movlt	r4, #0	; 0x0
    a9c8:	e58d403c 	str	r4, [sp, #60]
    a9cc:	eaffff00 	b	a5d4 <.text+0x25b4>
    a9d0:	e5d23000 	ldrb	r3, [r2]
    a9d4:	e3530030 	cmp	r3, #48	; 0x30
    a9d8:	1a000007 	bne	a9fc <.text+0x29dc>
    a9dc:	e1a00004 	mov	r0, r4
    a9e0:	e1a01005 	mov	r1, r5
    a9e4:	e3a02000 	mov	r2, #0	; 0x0
    a9e8:	e3a03000 	mov	r3, #0	; 0x0
    a9ec:	eb0016ee 	bl	105ac <__cmpdf2>
    a9f0:	e3500000 	cmp	r0, #0	; 0x0
    a9f4:	126b0001 	rsbne	r0, fp, #1	; 0x1
    a9f8:	158d069c 	strne	r0, [sp, #1692]
    a9fc:	e59d069c 	ldr	r0, [sp, #1692]
    aa00:	e0899000 	add	r9, r9, r0
    aa04:	eafffec3 	b	a518 <.text+0x24f8>
    aa08:	e28d1e67 	add	r1, sp, #1648	; 0x670
    aa0c:	e1a0000a 	mov	r0, sl
    aa10:	e2811008 	add	r1, r1, #8	; 0x8
    aa14:	ebfff851 	bl	8b60 <__sprint>
    aa18:	e3500000 	cmp	r0, #0	; 0x0
    aa1c:	1afff953 	bne	8f70 <.text+0xf50>
    aa20:	eaffffc6 	b	a940 <.text+0x2920>
    aa24:	e28b3001 	add	r3, fp, #1	; 0x1
    aa28:	e086b003 	add	fp, r6, r3
    aa2c:	e35b0000 	cmp	fp, #0	; 0x0
    aa30:	a1a0200b 	movge	r2, fp
    aa34:	b3a02000 	movlt	r2, #0	; 0x0
    aa38:	e58d203c 	str	r2, [sp, #60]
    aa3c:	eafffee4 	b	a5d4 <.text+0x25b4>
    aa40:	e5996000 	ldr	r6, [r9]
    aa44:	e3560000 	cmp	r6, #0	; 0x0
    aa48:	e2891004 	add	r1, r9, #4	; 0x4
    aa4c:	ba000015 	blt	aaa8 <.text+0x2a88>
    aa50:	e58d2018 	str	r2, [sp, #24]
    aa54:	e5d23000 	ldrb	r3, [r2]
    aa58:	e1a09001 	mov	r9, r1
    aa5c:	eafff8cd 	b	8d98 <_vfprintf_r+0x1f8>
    aa60:	e3560000 	cmp	r6, #0	; 0x0
    aa64:	1a000005 	bne	aa80 <.text+0x2a60>
    aa68:	e59d3054 	ldr	r3, [sp, #84]
    aa6c:	e3130001 	tst	r3, #1	; 0x1
    aa70:	03a04001 	moveq	r4, #1	; 0x1
    aa74:	058d403c 	streq	r4, [sp, #60]
    aa78:	01a0b004 	moveq	fp, r4
    aa7c:	0afffed4 	beq	a5d4 <.text+0x25b4>
    aa80:	e286b002 	add	fp, r6, #2	; 0x2
    aa84:	e35b0000 	cmp	fp, #0	; 0x0
    aa88:	a1a0c00b 	movge	ip, fp
    aa8c:	b3a0c000 	movlt	ip, #0	; 0x0
    aa90:	e58dc03c 	str	ip, [sp, #60]
    aa94:	eafffece 	b	a5d4 <.text+0x25b4>
    aa98:	e1da30bc 	ldrh	r3, [sl, #12]
    aa9c:	e3833040 	orr	r3, r3, #64	; 0x40
    aaa0:	e1ca30bc 	strh	r3, [sl, #12]
    aaa4:	eafff92e 	b	8f64 <.text+0xf44>
    aaa8:	e58d2018 	str	r2, [sp, #24]
    aaac:	e5d23000 	ldrb	r3, [r2]
    aab0:	e1a09001 	mov	r9, r1
    aab4:	e3e06000 	mvn	r6, #0	; 0x0
    aab8:	eafff8b6 	b	8d98 <_vfprintf_r+0x1f8>

0000aabc <vfprintf>:
    aabc:	e52de004 	str	lr, [sp, #-4]!
    aac0:	e1a03002 	mov	r3, r2
    aac4:	e59f2018 	ldr	r2, [pc, #24]	; aae4 <.text+0x2ac4>
    aac8:	e1a0c000 	mov	ip, r0
    aacc:	e1a0e001 	mov	lr, r1
    aad0:	e5920000 	ldr	r0, [r2]
    aad4:	e1a0100c 	mov	r1, ip
    aad8:	e1a0200e 	mov	r2, lr
    aadc:	e49de004 	ldr	lr, [sp], #4
    aae0:	eafff82e 	b	8ba0 <_vfprintf_r>
    aae4:	00010c00 	andeq	r0, r1, r0, lsl #24

0000aae8 <_wcrtomb_r>:
    aae8:	e92d4030 	stmdb	sp!, {r4, r5, lr}
    aaec:	e251c000 	subs	ip, r1, #0	; 0x0
    aaf0:	e24dd00c 	sub	sp, sp, #12	; 0xc
    aaf4:	e1a05000 	mov	r5, r0
    aaf8:	e1a04003 	mov	r4, r3
    aafc:	0a00000a 	beq	ab2c <_wcrtomb_r+0x44>
    ab00:	eb000076 	bl	ace0 <_wctomb_r>
    ab04:	e3700001 	cmn	r0, #1	; 0x1
    ab08:	e1a01000 	mov	r1, r0
    ab0c:	11a01000 	movne	r1, r0
    ab10:	03a03000 	moveq	r3, #0	; 0x0
    ab14:	03a0208a 	moveq	r2, #138	; 0x8a
    ab18:	e1a00001 	mov	r0, r1
    ab1c:	05843000 	streq	r3, [r4]
    ab20:	05852000 	streq	r2, [r5]
    ab24:	e28dd00c 	add	sp, sp, #12	; 0xc
    ab28:	e8bd8030 	ldmia	sp!, {r4, r5, pc}
    ab2c:	e1a0200c 	mov	r2, ip
    ab30:	e28d1002 	add	r1, sp, #2	; 0x2
    ab34:	eb000069 	bl	ace0 <_wctomb_r>
    ab38:	eafffff1 	b	ab04 <_wcrtomb_r+0x1c>

0000ab3c <wcrtomb>:
    ab3c:	e52de004 	str	lr, [sp, #-4]!
    ab40:	e1a03002 	mov	r3, r2
    ab44:	e59f2018 	ldr	r2, [pc, #24]	; ab64 <.text+0x2b44>
    ab48:	e1a0c000 	mov	ip, r0
    ab4c:	e1a0e001 	mov	lr, r1
    ab50:	e5920000 	ldr	r0, [r2]
    ab54:	e1a0100c 	mov	r1, ip
    ab58:	e1a0200e 	mov	r2, lr
    ab5c:	e49de004 	ldr	lr, [sp], #4
    ab60:	eaffffe0 	b	aae8 <_wcrtomb_r>
    ab64:	00010c00 	andeq	r0, r1, r0, lsl #24

0000ab68 <_wcsrtombs_r>:
    ab68:	e92d4ff0 	stmdb	sp!, {r4, r5, r6, r7, r8, r9, sl, fp, lr}
    ab6c:	e3510000 	cmp	r1, #0	; 0x0
    ab70:	e24dd014 	sub	sp, sp, #20	; 0x14
    ab74:	e58d1000 	str	r1, [sp]
    ab78:	e58d0004 	str	r0, [sp, #4]
    ab7c:	e1a0b002 	mov	fp, r2
    ab80:	e1a06003 	mov	r6, r3
    ab84:	e59d9038 	ldr	r9, [sp, #56]
    ab88:	0a000039 	beq	ac74 <_wcsrtombs_r+0x10c>
    ab8c:	e3530000 	cmp	r3, #0	; 0x0
    ab90:	e5928000 	ldr	r8, [r2]
    ab94:	0a000039 	beq	ac80 <_wcsrtombs_r+0x118>
    ab98:	e59d4000 	ldr	r4, [sp]
    ab9c:	e3a05000 	mov	r5, #0	; 0x0
    aba0:	e59d0004 	ldr	r0, [sp, #4]
    aba4:	e28d100a 	add	r1, sp, #10	; 0xa
    aba8:	e5982000 	ldr	r2, [r8]
    abac:	e1a03009 	mov	r3, r9
    abb0:	e599a000 	ldr	sl, [r9]
    abb4:	e5997004 	ldr	r7, [r9, #4]
    abb8:	ebffffca 	bl	aae8 <_wcrtomb_r>
    abbc:	e3700001 	cmn	r0, #1	; 0x1
    abc0:	0a00001f 	beq	ac44 <_wcsrtombs_r+0xdc>
    abc4:	e0603006 	rsb	r3, r0, r6
    abc8:	e1530005 	cmp	r3, r5
    abcc:	33a02000 	movcc	r2, #0	; 0x0
    abd0:	23a02001 	movcs	r2, #1	; 0x1
    abd4:	e1500006 	cmp	r0, r6
    abd8:	23a02000 	movcs	r2, #0	; 0x0
    abdc:	e3520000 	cmp	r2, #0	; 0x0
    abe0:	0a000020 	beq	ac68 <_wcsrtombs_r+0x100>
    abe4:	e59d1000 	ldr	r1, [sp]
    abe8:	e3510000 	cmp	r1, #0	; 0x0
    abec:	e0855000 	add	r5, r5, r0
    abf0:	0a00000c 	beq	ac28 <_wcsrtombs_r+0xc0>
    abf4:	e3500000 	cmp	r0, #0	; 0x0
    abf8:	da000007 	ble	ac1c <_wcsrtombs_r+0xb4>
    abfc:	e3a02000 	mov	r2, #0	; 0x0
    ac00:	e282100a 	add	r1, r2, #10	; 0xa
    ac04:	e7d1300d 	ldrb	r3, [r1, sp]
    ac08:	e7c23004 	strb	r3, [r2, r4]
    ac0c:	e2822001 	add	r2, r2, #1	; 0x1
    ac10:	e1500002 	cmp	r0, r2
    ac14:	1afffff9 	bne	ac00 <_wcsrtombs_r+0x98>
    ac18:	e0844000 	add	r4, r4, r0
    ac1c:	e59b3000 	ldr	r3, [fp]
    ac20:	e2833004 	add	r3, r3, #4	; 0x4
    ac24:	e58b3000 	str	r3, [fp]
    ac28:	e5983000 	ldr	r3, [r8]
    ac2c:	e3530000 	cmp	r3, #0	; 0x0
    ac30:	0a000014 	beq	ac88 <_wcsrtombs_r+0x120>
    ac34:	e1550006 	cmp	r5, r6
    ac38:	2a000007 	bcs	ac5c <_wcsrtombs_r+0xf4>
    ac3c:	e2888004 	add	r8, r8, #4	; 0x4
    ac40:	eaffffd6 	b	aba0 <_wcsrtombs_r+0x38>
    ac44:	e59d1004 	ldr	r1, [sp, #4]
    ac48:	e3a0308a 	mov	r3, #138	; 0x8a
    ac4c:	e3a02000 	mov	r2, #0	; 0x0
    ac50:	e5813000 	str	r3, [r1]
    ac54:	e5892000 	str	r2, [r9]
    ac58:	e1a05000 	mov	r5, r0
    ac5c:	e1a00005 	mov	r0, r5
    ac60:	e28dd014 	add	sp, sp, #20	; 0x14
    ac64:	e8bd8ff0 	ldmia	sp!, {r4, r5, r6, r7, r8, r9, sl, fp, pc}
    ac68:	e5897004 	str	r7, [r9, #4]
    ac6c:	e589a000 	str	sl, [r9]
    ac70:	eafffff9 	b	ac5c <_wcsrtombs_r+0xf4>
    ac74:	e5928000 	ldr	r8, [r2]
    ac78:	e3e06000 	mvn	r6, #0	; 0x0
    ac7c:	eaffffc5 	b	ab98 <_wcsrtombs_r+0x30>
    ac80:	e3a05000 	mov	r5, #0	; 0x0
    ac84:	eafffff4 	b	ac5c <_wcsrtombs_r+0xf4>
    ac88:	e59d2000 	ldr	r2, [sp]
    ac8c:	e2455001 	sub	r5, r5, #1	; 0x1
    ac90:	e3520000 	cmp	r2, #0	; 0x0
    ac94:	158b3000 	strne	r3, [fp]
    ac98:	e5893000 	str	r3, [r9]
    ac9c:	eaffffee 	b	ac5c <_wcsrtombs_r+0xf4>

0000aca0 <wcsrtombs>:
    aca0:	e92d4030 	stmdb	sp!, {r4, r5, lr}
    aca4:	e59fc030 	ldr	ip, [pc, #48]	; acdc <.text+0x2cbc>
    aca8:	e59ce000 	ldr	lr, [ip]
    acac:	e1a04000 	mov	r4, r0
    acb0:	e1a0c001 	mov	ip, r1
    acb4:	e1a05002 	mov	r5, r2
    acb8:	e24dd004 	sub	sp, sp, #4	; 0x4
    acbc:	e58d3000 	str	r3, [sp]
    acc0:	e1a0000e 	mov	r0, lr
    acc4:	e1a01004 	mov	r1, r4
    acc8:	e1a0200c 	mov	r2, ip
    accc:	e1a03005 	mov	r3, r5
    acd0:	ebffffa4 	bl	ab68 <_wcsrtombs_r>
    acd4:	e28dd004 	add	sp, sp, #4	; 0x4
    acd8:	e8bd8030 	ldmia	sp!, {r4, r5, pc}
    acdc:	00010c00 	andeq	r0, r1, r0, lsl #24

0000ace0 <_wctomb_r>:
    ace0:	e92d40f0 	stmdb	sp!, {r4, r5, r6, r7, lr}
    ace4:	e59f0400 	ldr	r0, [pc, #1024]	; b0ec <.text+0x30cc>
    ace8:	e1a07001 	mov	r7, r1
    acec:	e1a04002 	mov	r4, r2
    acf0:	e1a05003 	mov	r5, r3
    acf4:	eb001286 	bl	f714 <strlen>
    acf8:	e3500001 	cmp	r0, #1	; 0x1
    acfc:	9a000025 	bls	ad98 <_wctomb_r+0xb8>
    ad00:	e59f03e4 	ldr	r0, [pc, #996]	; b0ec <.text+0x30cc>
    ad04:	e59f13e4 	ldr	r1, [pc, #996]	; b0f0 <.text+0x30d0>
    ad08:	eb00124d 	bl	f644 <strcmp>
    ad0c:	e3500000 	cmp	r0, #0	; 0x0
    ad10:	1a000012 	bne	ad60 <_wctomb_r+0x80>
    ad14:	e3570000 	cmp	r7, #0	; 0x0
    ad18:	0a000020 	beq	ada0 <_wctomb_r+0xc0>
    ad1c:	e354007f 	cmp	r4, #127	; 0x7f
    ad20:	da000018 	ble	ad88 <_wctomb_r+0xa8>
    ad24:	e2443080 	sub	r3, r4, #128	; 0x80
    ad28:	e3530d1e 	cmp	r3, #1920	; 0x780
    ad2c:	2a000063 	bcs	aec0 <_wctomb_r+0x1e0>
    ad30:	e2043d1f 	and	r3, r4, #1984	; 0x7c0
    ad34:	e204203f 	and	r2, r4, #63	; 0x3f
    ad38:	e1a03343 	mov	r3, r3, asr #6
    ad3c:	e3a06002 	mov	r6, #2	; 0x2
    ad40:	e1e03d03 	mvn	r3, r3, lsl #26
    ad44:	e1e02c82 	mvn	r2, r2, lsl #25
    ad48:	e1e03d23 	mvn	r3, r3, lsr #26
    ad4c:	e1e02ca2 	mvn	r2, r2, lsr #25
    ad50:	e1a00006 	mov	r0, r6
    ad54:	e5c72001 	strb	r2, [r7, #1]
    ad58:	e5c73000 	strb	r3, [r7]
    ad5c:	e8bd80f0 	ldmia	sp!, {r4, r5, r6, r7, pc}
    ad60:	e59f0384 	ldr	r0, [pc, #900]	; b0ec <.text+0x30cc>
    ad64:	e59f1388 	ldr	r1, [pc, #904]	; b0f4 <.text+0x30d4>
    ad68:	eb001235 	bl	f644 <strcmp>
    ad6c:	e3500000 	cmp	r0, #0	; 0x0
    ad70:	1a00000d 	bne	adac <_wctomb_r+0xcc>
    ad74:	e3570000 	cmp	r7, #0	; 0x0
    ad78:	0a000008 	beq	ada0 <_wctomb_r+0xc0>
    ad7c:	e1a03444 	mov	r3, r4, asr #8
    ad80:	e213e0ff 	ands	lr, r3, #255	; 0xff
    ad84:	1a000034 	bne	ae5c <_wctomb_r+0x17c>
    ad88:	e5c74000 	strb	r4, [r7]
    ad8c:	e3a06001 	mov	r6, #1	; 0x1
    ad90:	e1a00006 	mov	r0, r6
    ad94:	e8bd80f0 	ldmia	sp!, {r4, r5, r6, r7, pc}
    ad98:	e3570000 	cmp	r7, #0	; 0x0
    ad9c:	1afffff9 	bne	ad88 <_wctomb_r+0xa8>
    ada0:	e3a06000 	mov	r6, #0	; 0x0
    ada4:	e1a00006 	mov	r0, r6
    ada8:	e8bd80f0 	ldmia	sp!, {r4, r5, r6, r7, pc}
    adac:	e59f0338 	ldr	r0, [pc, #824]	; b0ec <.text+0x30cc>
    adb0:	e59f1340 	ldr	r1, [pc, #832]	; b0f8 <.text+0x30d8>
    adb4:	eb001222 	bl	f644 <strcmp>
    adb8:	e3500000 	cmp	r0, #0	; 0x0
    adbc:	1a00000a 	bne	adec <_wctomb_r+0x10c>
    adc0:	e3570000 	cmp	r7, #0	; 0x0
    adc4:	0afffff5 	beq	ada0 <_wctomb_r+0xc0>
    adc8:	e1a03444 	mov	r3, r4, asr #8
    adcc:	e213e0ff 	ands	lr, r3, #255	; 0xff
    add0:	0affffec 	beq	ad88 <_wctomb_r+0xa8>
    add4:	e28e305f 	add	r3, lr, #95	; 0x5f
    add8:	e20330ff 	and	r3, r3, #255	; 0xff
    addc:	e353005d 	cmp	r3, #93	; 0x5d
    ade0:	9a00002f 	bls	aea4 <_wctomb_r+0x1c4>
    ade4:	e3e06000 	mvn	r6, #0	; 0x0
    ade8:	eaffffe8 	b	ad90 <_wctomb_r+0xb0>
    adec:	e59f02f8 	ldr	r0, [pc, #760]	; b0ec <.text+0x30cc>
    adf0:	e59f1304 	ldr	r1, [pc, #772]	; b0fc <.text+0x30dc>
    adf4:	eb001212 	bl	f644 <strcmp>
    adf8:	e3500000 	cmp	r0, #0	; 0x0
    adfc:	1affffe5 	bne	ad98 <_wctomb_r+0xb8>
    ae00:	e3570000 	cmp	r7, #0	; 0x0
    ae04:	03a06001 	moveq	r6, #1	; 0x1
    ae08:	0affffe0 	beq	ad90 <_wctomb_r+0xb0>
    ae0c:	e1a03444 	mov	r3, r4, asr #8
    ae10:	e213e0ff 	ands	lr, r3, #255	; 0xff
    ae14:	e20400ff 	and	r0, r4, #255	; 0xff
    ae18:	1a000044 	bne	af30 <_wctomb_r+0x250>
    ae1c:	e5953000 	ldr	r3, [r5]
    ae20:	e3530000 	cmp	r3, #0	; 0x0
    ae24:	03a06001 	moveq	r6, #1	; 0x1
    ae28:	0a000009 	beq	ae54 <_wctomb_r+0x174>
    ae2c:	e1a01007 	mov	r1, r7
    ae30:	e3a0301b 	mov	r3, #27	; 0x1b
    ae34:	e585e000 	str	lr, [r5]
    ae38:	e4c13001 	strb	r3, [r1], #1
    ae3c:	e3a02028 	mov	r2, #40	; 0x28
    ae40:	e2833027 	add	r3, r3, #39	; 0x27
    ae44:	e5c72001 	strb	r2, [r7, #1]
    ae48:	e5c13001 	strb	r3, [r1, #1]
    ae4c:	e2817002 	add	r7, r1, #2	; 0x2
    ae50:	e3a06004 	mov	r6, #4	; 0x4
    ae54:	e5c70000 	strb	r0, [r7]
    ae58:	eaffffcc 	b	ad90 <_wctomb_r+0xb0>
    ae5c:	e28e207f 	add	r2, lr, #127	; 0x7f
    ae60:	e28e3020 	add	r3, lr, #32	; 0x20
    ae64:	e20220ff 	and	r2, r2, #255	; 0xff
    ae68:	e20330ff 	and	r3, r3, #255	; 0xff
    ae6c:	e353000f 	cmp	r3, #15	; 0xf
    ae70:	8352001e 	cmphi	r2, #30	; 0x1e
    ae74:	8affffda 	bhi	ade4 <_wctomb_r+0x104>
    ae78:	e20400ff 	and	r0, r4, #255	; 0xff
    ae7c:	e2403080 	sub	r3, r0, #128	; 0x80
    ae80:	e20330ff 	and	r3, r3, #255	; 0xff
    ae84:	e2402040 	sub	r2, r0, #64	; 0x40
    ae88:	e353007c 	cmp	r3, #124	; 0x7c
    ae8c:	8352003e 	cmphi	r2, #62	; 0x3e
    ae90:	8affffd3 	bhi	ade4 <_wctomb_r+0x104>
    ae94:	e3a06002 	mov	r6, #2	; 0x2
    ae98:	e5c70001 	strb	r0, [r7, #1]
    ae9c:	e5c7e000 	strb	lr, [r7]
    aea0:	eaffffba 	b	ad90 <_wctomb_r+0xb0>
    aea4:	e20400ff 	and	r0, r4, #255	; 0xff
    aea8:	e280305f 	add	r3, r0, #95	; 0x5f
    aeac:	e20330ff 	and	r3, r3, #255	; 0xff
    aeb0:	e353005d 	cmp	r3, #93	; 0x5d
    aeb4:	9afffff6 	bls	ae94 <_wctomb_r+0x1b4>
    aeb8:	e3e06000 	mvn	r6, #0	; 0x0
    aebc:	eaffffb3 	b	ad90 <_wctomb_r+0xb0>
    aec0:	e2443b02 	sub	r3, r4, #2048	; 0x800
    aec4:	e3530b3e 	cmp	r3, #63488	; 0xf800
    aec8:	3a00004f 	bcc	b00c <_wctomb_r+0x32c>
    aecc:	e2443801 	sub	r3, r4, #65536	; 0x10000
    aed0:	e353081f 	cmp	r3, #2031616	; 0x1f0000
    aed4:	2a00002d 	bcs	af90 <_wctomb_r+0x2b0>
    aed8:	e2043707 	and	r3, r4, #1835008	; 0x1c0000
    aedc:	e1a03943 	mov	r3, r3, asr #18
    aee0:	e1e03e03 	mvn	r3, r3, lsl #28
    aee4:	e2042a3f 	and	r2, r4, #258048	; 0x3f000
    aee8:	e2041d3f 	and	r1, r4, #4032	; 0xfc0
    aeec:	e1a0c007 	mov	ip, r7
    aef0:	e1e03e23 	mvn	r3, r3, lsr #28
    aef4:	e1a02642 	mov	r2, r2, asr #12
    aef8:	e1a01341 	mov	r1, r1, asr #6
    aefc:	e204003f 	and	r0, r4, #63	; 0x3f
    af00:	e4cc3001 	strb	r3, [ip], #1
    af04:	e1e02c82 	mvn	r2, r2, lsl #25
    af08:	e1e01c81 	mvn	r1, r1, lsl #25
    af0c:	e1e00c80 	mvn	r0, r0, lsl #25
    af10:	e1e02ca2 	mvn	r2, r2, lsr #25
    af14:	e1e01ca1 	mvn	r1, r1, lsr #25
    af18:	e1e00ca0 	mvn	r0, r0, lsr #25
    af1c:	e3a06004 	mov	r6, #4	; 0x4
    af20:	e5c72001 	strb	r2, [r7, #1]
    af24:	e5cc0002 	strb	r0, [ip, #2]
    af28:	e5cc1001 	strb	r1, [ip, #1]
    af2c:	eaffff97 	b	ad90 <_wctomb_r+0xb0>
    af30:	e24e3021 	sub	r3, lr, #33	; 0x21
    af34:	e353005d 	cmp	r3, #93	; 0x5d
    af38:	8affffa9 	bhi	ade4 <_wctomb_r+0x104>
    af3c:	e2403021 	sub	r3, r0, #33	; 0x21
    af40:	e353005d 	cmp	r3, #93	; 0x5d
    af44:	8affffa6 	bhi	ade4 <_wctomb_r+0x104>
    af48:	e5953000 	ldr	r3, [r5]
    af4c:	e3530000 	cmp	r3, #0	; 0x0
    af50:	13a06002 	movne	r6, #2	; 0x2
    af54:	1a00000a 	bne	af84 <_wctomb_r+0x2a4>
    af58:	e1a01007 	mov	r1, r7
    af5c:	e3a03001 	mov	r3, #1	; 0x1
    af60:	e3a0201b 	mov	r2, #27	; 0x1b
    af64:	e5853000 	str	r3, [r5]
    af68:	e4c12001 	strb	r2, [r1], #1
    af6c:	e2833023 	add	r3, r3, #35	; 0x23
    af70:	e2822027 	add	r2, r2, #39	; 0x27
    af74:	e5c73001 	strb	r3, [r7, #1]
    af78:	e5c12001 	strb	r2, [r1, #1]
    af7c:	e2817002 	add	r7, r1, #2	; 0x2
    af80:	e3a06005 	mov	r6, #5	; 0x5
    af84:	e5c70001 	strb	r0, [r7, #1]
    af88:	e5c7e000 	strb	lr, [r7]
    af8c:	eaffff7f 	b	ad90 <_wctomb_r+0xb0>
    af90:	e2443602 	sub	r3, r4, #2097152	; 0x200000
    af94:	e353063e 	cmp	r3, #65011712	; 0x3e00000
    af98:	2a00002f 	bcs	b05c <_wctomb_r+0x37c>
    af9c:	e2043403 	and	r3, r4, #50331648	; 0x3000000
    afa0:	e1a03c43 	mov	r3, r3, asr #24
    afa4:	e1e03e83 	mvn	r3, r3, lsl #29
    afa8:	e1a0e007 	mov	lr, r7
    afac:	e1e03ea3 	mvn	r3, r3, lsr #29
    afb0:	e204273f 	and	r2, r4, #16515072	; 0xfc0000
    afb4:	e2041a3f 	and	r1, r4, #258048	; 0x3f000
    afb8:	e2040d3f 	and	r0, r4, #4032	; 0xfc0
    afbc:	e4ce3001 	strb	r3, [lr], #1
    afc0:	e1a02942 	mov	r2, r2, asr #18
    afc4:	e1a01641 	mov	r1, r1, asr #12
    afc8:	e1a00340 	mov	r0, r0, asr #6
    afcc:	e204303f 	and	r3, r4, #63	; 0x3f
    afd0:	e1e02c82 	mvn	r2, r2, lsl #25
    afd4:	e1e01c81 	mvn	r1, r1, lsl #25
    afd8:	e1e00c80 	mvn	r0, r0, lsl #25
    afdc:	e1e03c83 	mvn	r3, r3, lsl #25
    afe0:	e28ec001 	add	ip, lr, #1	; 0x1
    afe4:	e1e02ca2 	mvn	r2, r2, lsr #25
    afe8:	e1e01ca1 	mvn	r1, r1, lsr #25
    afec:	e1e00ca0 	mvn	r0, r0, lsr #25
    aff0:	e1e03ca3 	mvn	r3, r3, lsr #25
    aff4:	e3a06005 	mov	r6, #5	; 0x5
    aff8:	e5c72001 	strb	r2, [r7, #1]
    affc:	e5ce1001 	strb	r1, [lr, #1]
    b000:	e5cc3002 	strb	r3, [ip, #2]
    b004:	e5cc0001 	strb	r0, [ip, #1]
    b008:	eaffff60 	b	ad90 <_wctomb_r+0xb0>
    b00c:	e2443b36 	sub	r3, r4, #55296	; 0xd800
    b010:	e3530b02 	cmp	r3, #2048	; 0x800
    b014:	3affff72 	bcc	ade4 <_wctomb_r+0x104>
    b018:	e2043a0f 	and	r3, r4, #61440	; 0xf000
    b01c:	e1a03643 	mov	r3, r3, asr #12
    b020:	e1e03d83 	mvn	r3, r3, lsl #27
    b024:	e2042d3f 	and	r2, r4, #4032	; 0xfc0
    b028:	e1a00007 	mov	r0, r7
    b02c:	e1e03da3 	mvn	r3, r3, lsr #27
    b030:	e1a02342 	mov	r2, r2, asr #6
    b034:	e204103f 	and	r1, r4, #63	; 0x3f
    b038:	e4c03001 	strb	r3, [r0], #1
    b03c:	e1e02c82 	mvn	r2, r2, lsl #25
    b040:	e1e01c81 	mvn	r1, r1, lsl #25
    b044:	e1e02ca2 	mvn	r2, r2, lsr #25
    b048:	e1e01ca1 	mvn	r1, r1, lsr #25
    b04c:	e3a06003 	mov	r6, #3	; 0x3
    b050:	e5c72001 	strb	r2, [r7, #1]
    b054:	e5c01001 	strb	r1, [r0, #1]
    b058:	eaffff4c 	b	ad90 <_wctomb_r+0xb0>
    b05c:	e374037f 	cmn	r4, #-67108863	; 0xfc000001
    b060:	daffff5f 	ble	ade4 <_wctomb_r+0x104>
    b064:	e2043101 	and	r3, r4, #1073741824	; 0x40000000
    b068:	e1a03f43 	mov	r3, r3, asr #30
    b06c:	e1e03f03 	mvn	r3, r3, lsl #30
    b070:	e1a0e007 	mov	lr, r7
    b074:	e1e03f23 	mvn	r3, r3, lsr #30
    b078:	e4ce3001 	strb	r3, [lr], #1
    b07c:	e204243f 	and	r2, r4, #1056964608	; 0x3f000000
    b080:	e204373f 	and	r3, r4, #16515072	; 0xfc0000
    b084:	e2041a3f 	and	r1, r4, #258048	; 0x3f000
    b088:	e2040d3f 	and	r0, r4, #4032	; 0xfc0
    b08c:	e204c03f 	and	ip, r4, #63	; 0x3f
    b090:	e1a02c42 	mov	r2, r2, asr #24
    b094:	e1a03943 	mov	r3, r3, asr #18
    b098:	e1a01641 	mov	r1, r1, asr #12
    b09c:	e1a00340 	mov	r0, r0, asr #6
    b0a0:	e28e5001 	add	r5, lr, #1	; 0x1
    b0a4:	e1e02c82 	mvn	r2, r2, lsl #25
    b0a8:	e1e03c83 	mvn	r3, r3, lsl #25
    b0ac:	e1e01c81 	mvn	r1, r1, lsl #25
    b0b0:	e1e00c80 	mvn	r0, r0, lsl #25
    b0b4:	e1e0cc8c 	mvn	ip, ip, lsl #25
    b0b8:	e2854001 	add	r4, r5, #1	; 0x1
    b0bc:	e1e02ca2 	mvn	r2, r2, lsr #25
    b0c0:	e1e03ca3 	mvn	r3, r3, lsr #25
    b0c4:	e1e01ca1 	mvn	r1, r1, lsr #25
    b0c8:	e1e00ca0 	mvn	r0, r0, lsr #25
    b0cc:	e1e0ccac 	mvn	ip, ip, lsr #25
    b0d0:	e3a06006 	mov	r6, #6	; 0x6
    b0d4:	e5c72001 	strb	r2, [r7, #1]
    b0d8:	e5ce3001 	strb	r3, [lr, #1]
    b0dc:	e5c51001 	strb	r1, [r5, #1]
    b0e0:	e5c4c002 	strb	ip, [r4, #2]
    b0e4:	e5c40001 	strb	r0, [r4, #1]
    b0e8:	eaffff28 	b	ad90 <_wctomb_r+0xb0>
    b0ec:	00011008 	andeq	r1, r1, r8
    b0f0:	00010808 	andeq	r0, r1, r8, lsl #16
    b0f4:	00010810 	andeq	r0, r1, r0, lsl r8
    b0f8:	00010818 	andeq	r0, r1, r8, lsl r8
    b0fc:	00010820 	andeq	r0, r1, r0, lsr #16

0000b100 <__swsetup>:
    b100:	e92d4070 	stmdb	sp!, {r4, r5, r6, lr}
    b104:	e59f60ec 	ldr	r6, [pc, #236]	; b1f8 <.text+0x31d8>
    b108:	e5962000 	ldr	r2, [r6]
    b10c:	e3520000 	cmp	r2, #0	; 0x0
    b110:	e1a04000 	mov	r4, r0
    b114:	0a000002 	beq	b124 <__swsetup+0x24>
    b118:	e5923038 	ldr	r3, [r2, #56]
    b11c:	e3530000 	cmp	r3, #0	; 0x0
    b120:	0a000015 	beq	b17c <__swsetup+0x7c>
    b124:	e1d420bc 	ldrh	r2, [r4, #12]
    b128:	e2125008 	ands	r5, r2, #8	; 0x8
    b12c:	15941010 	ldrne	r1, [r4, #16]
    b130:	0a000017 	beq	b194 <__swsetup+0x94>
    b134:	e3510000 	cmp	r1, #0	; 0x0
    b138:	0a000012 	beq	b188 <__swsetup+0x88>
    b13c:	e1d430bc 	ldrh	r3, [r4, #12]
    b140:	e2132001 	ands	r2, r3, #1	; 0x1
    b144:	1a000005 	bne	b160 <__swsetup+0x60>
    b148:	e3130002 	tst	r3, #2	; 0x2
    b14c:	05943014 	ldreq	r3, [r4, #20]
    b150:	11a03002 	movne	r3, r2
    b154:	e3a00000 	mov	r0, #0	; 0x0
    b158:	e5843008 	str	r3, [r4, #8]
    b15c:	e8bd8070 	ldmia	sp!, {r4, r5, r6, pc}
    b160:	e5943014 	ldr	r3, [r4, #20]
    b164:	e3a02000 	mov	r2, #0	; 0x0
    b168:	e2633000 	rsb	r3, r3, #0	; 0x0
    b16c:	e1a00002 	mov	r0, r2
    b170:	e5843018 	str	r3, [r4, #24]
    b174:	e5842008 	str	r2, [r4, #8]
    b178:	e8bd8070 	ldmia	sp!, {r4, r5, r6, pc}
    b17c:	e1a00002 	mov	r0, r2
    b180:	eb000693 	bl	cbd4 <__sinit>
    b184:	eaffffe6 	b	b124 <__swsetup+0x24>
    b188:	e1a00004 	mov	r0, r4
    b18c:	eb000963 	bl	d720 <__smakebuf>
    b190:	eaffffe9 	b	b13c <__swsetup+0x3c>
    b194:	e3120010 	tst	r2, #16	; 0x10
    b198:	03e00000 	mvneq	r0, #0	; 0x0
    b19c:	08bd8070 	ldmeqia	sp!, {r4, r5, r6, pc}
    b1a0:	e3120004 	tst	r2, #4	; 0x4
    b1a4:	05941010 	ldreq	r1, [r4, #16]
    b1a8:	0a00000f 	beq	b1ec <__swsetup+0xec>
    b1ac:	e5941030 	ldr	r1, [r4, #48]
    b1b0:	e3510000 	cmp	r1, #0	; 0x0
    b1b4:	0a000006 	beq	b1d4 <__swsetup+0xd4>
    b1b8:	e2843040 	add	r3, r4, #64	; 0x40
    b1bc:	e1510003 	cmp	r1, r3
    b1c0:	0a000002 	beq	b1d0 <__swsetup+0xd0>
    b1c4:	e5960000 	ldr	r0, [r6]
    b1c8:	eb000740 	bl	ced0 <_free_r>
    b1cc:	e1d420bc 	ldrh	r2, [r4, #12]
    b1d0:	e5845030 	str	r5, [r4, #48]
    b1d4:	e3c23024 	bic	r3, r2, #36	; 0x24
    b1d8:	e1c430bc 	strh	r3, [r4, #12]
    b1dc:	e5941010 	ldr	r1, [r4, #16]
    b1e0:	e3a03000 	mov	r3, #0	; 0x0
    b1e4:	e1d420bc 	ldrh	r2, [r4, #12]
    b1e8:	e884000a 	stmia	r4, {r1, r3}
    b1ec:	e3823008 	orr	r3, r2, #8	; 0x8
    b1f0:	e1c430bc 	strh	r3, [r4, #12]
    b1f4:	eaffffce 	b	b134 <__swsetup+0x34>
    b1f8:	00010c00 	andeq	r0, r1, r0, lsl #24

0000b1fc <__register_exitproc>:
    b1fc:	e59fc0d4 	ldr	ip, [pc, #212]	; b2d8 <.text+0x32b8>
    b200:	e92d41f0 	stmdb	sp!, {r4, r5, r6, r7, r8, lr}
    b204:	e59c4000 	ldr	r4, [ip]
    b208:	e594c148 	ldr	ip, [r4, #328]
    b20c:	e35c0000 	cmp	ip, #0	; 0x0
    b210:	0284cf53 	addeq	ip, r4, #332	; 0x14c
    b214:	e1a07001 	mov	r7, r1
    b218:	e59c1004 	ldr	r1, [ip, #4]
    b21c:	0584c148 	streq	ip, [r4, #328]
    b220:	e351001f 	cmp	r1, #31	; 0x1f
    b224:	e1a05000 	mov	r5, r0
    b228:	e1a08002 	mov	r8, r2
    b22c:	e1a06003 	mov	r6, r3
    b230:	ca00001a 	bgt	b2a0 <__register_exitproc+0xa4>
    b234:	e3550000 	cmp	r5, #0	; 0x0
    b238:	1a000005 	bne	b254 <__register_exitproc+0x58>
    b23c:	e2812001 	add	r2, r1, #1	; 0x1
    b240:	e08c3101 	add	r3, ip, r1, lsl #2
    b244:	e3a00000 	mov	r0, #0	; 0x0
    b248:	e5837008 	str	r7, [r3, #8]
    b24c:	e58c2004 	str	r2, [ip, #4]
    b250:	e8bd81f0 	ldmia	sp!, {r4, r5, r6, r7, r8, pc}
    b254:	e3a03001 	mov	r3, #1	; 0x1
    b258:	e1a0e113 	mov	lr, r3, lsl r1
    b25c:	e28c0088 	add	r0, ip, #136	; 0x88
    b260:	e0803101 	add	r3, r0, r1, lsl #2
    b264:	e3550002 	cmp	r5, #2	; 0x2
    b268:	e5902100 	ldr	r2, [r0, #256]
    b26c:	e5836080 	str	r6, [r3, #128]
    b270:	05903104 	ldreq	r3, [r0, #260]
    b274:	e182200e 	orr	r2, r2, lr
    b278:	0183300e 	orreq	r3, r3, lr
    b27c:	e5802100 	str	r2, [r0, #256]
    b280:	05803104 	streq	r3, [r0, #260]
    b284:	e7808101 	str	r8, [r0, r1, lsl #2]
    b288:	e2812001 	add	r2, r1, #1	; 0x1
    b28c:	e08c3101 	add	r3, ip, r1, lsl #2
    b290:	e3a00000 	mov	r0, #0	; 0x0
    b294:	e5837008 	str	r7, [r3, #8]
    b298:	e58c2004 	str	r2, [ip, #4]
    b29c:	e8bd81f0 	ldmia	sp!, {r4, r5, r6, r7, r8, pc}
    b2a0:	e3a00e19 	mov	r0, #400	; 0x190
    b2a4:	eb000977 	bl	d888 <malloc>
    b2a8:	e3500000 	cmp	r0, #0	; 0x0
    b2ac:	03e00000 	mvneq	r0, #0	; 0x0
    b2b0:	08bd81f0 	ldmeqia	sp!, {r4, r5, r6, r7, r8, pc}
    b2b4:	e3a03000 	mov	r3, #0	; 0x0
    b2b8:	e5942148 	ldr	r2, [r4, #328]
    b2bc:	e1a0c000 	mov	ip, r0
    b2c0:	e1a01003 	mov	r1, r3
    b2c4:	e880000c 	stmia	r0, {r2, r3}
    b2c8:	e5840148 	str	r0, [r4, #328]
    b2cc:	e5803188 	str	r3, [r0, #392]
    b2d0:	e580318c 	str	r3, [r0, #396]
    b2d4:	eaffffd6 	b	b234 <__register_exitproc+0x38>
    b2d8:	00010778 	andeq	r0, r1, r8, ror r7

0000b2dc <__call_exitprocs>:
    b2dc:	e59f3138 	ldr	r3, [pc, #312]	; b41c <.text+0x33fc>
    b2e0:	e5933000 	ldr	r3, [r3]
    b2e4:	e92d4ff0 	stmdb	sp!, {r4, r5, r6, r7, r8, r9, sl, fp, lr}
    b2e8:	e5937148 	ldr	r7, [r3, #328]
    b2ec:	e3570000 	cmp	r7, #0	; 0x0
    b2f0:	e1a0b000 	mov	fp, r0
    b2f4:	e1a0a001 	mov	sl, r1
    b2f8:	08bd8ff0 	ldmeqia	sp!, {r4, r5, r6, r7, r8, r9, sl, fp, pc}
    b2fc:	e2839f52 	add	r9, r3, #328	; 0x148
    b300:	e5971004 	ldr	r1, [r7, #4]
    b304:	e2514001 	subs	r4, r1, #1	; 0x1
    b308:	e2878088 	add	r8, r7, #136	; 0x88
    b30c:	4a000029 	bmi	b3b8 <__call_exitprocs+0xdc>
    b310:	e1a02101 	mov	r2, r1, lsl #2
    b314:	e2823008 	add	r3, r2, #8	; 0x8
    b318:	e0876003 	add	r6, r7, r3
    b31c:	e0885002 	add	r5, r8, r2
    b320:	ea000007 	b	b344 <__call_exitprocs+0x68>
    b324:	e595307c 	ldr	r3, [r5, #124]
    b328:	e15a0003 	cmp	sl, r3
    b32c:	0a000006 	beq	b34c <__call_exitprocs+0x70>
    b330:	e2444001 	sub	r4, r4, #1	; 0x1
    b334:	e3740001 	cmn	r4, #1	; 0x1
    b338:	e2455004 	sub	r5, r5, #4	; 0x4
    b33c:	e2466004 	sub	r6, r6, #4	; 0x4
    b340:	0a00001c 	beq	b3b8 <__call_exitprocs+0xdc>
    b344:	e35a0000 	cmp	sl, #0	; 0x0
    b348:	1afffff5 	bne	b324 <__call_exitprocs+0x48>
    b34c:	e2413001 	sub	r3, r1, #1	; 0x1
    b350:	e1530004 	cmp	r3, r4
    b354:	e516c004 	ldr	ip, [r6, #-4]
    b358:	05874004 	streq	r4, [r7, #4]
    b35c:	13a03000 	movne	r3, #0	; 0x0
    b360:	15063004 	strne	r3, [r6, #-4]
    b364:	e35c0000 	cmp	ip, #0	; 0x0
    b368:	05971004 	ldreq	r1, [r7, #4]
    b36c:	0affffef 	beq	b330 <__call_exitprocs+0x54>
    b370:	e3a03001 	mov	r3, #1	; 0x1
    b374:	e1a01413 	mov	r1, r3, lsl r4
    b378:	e5982100 	ldr	r2, [r8, #256]
    b37c:	e1110002 	tst	r1, r2
    b380:	0a00001e 	beq	b400 <__call_exitprocs+0x124>
    b384:	e5983104 	ldr	r3, [r8, #260]
    b388:	e1110003 	tst	r1, r3
    b38c:	1a000016 	bne	b3ec <__call_exitprocs+0x110>
    b390:	e5151004 	ldr	r1, [r5, #-4]
    b394:	e1a0000b 	mov	r0, fp
    b398:	e2444001 	sub	r4, r4, #1	; 0x1
    b39c:	e1a0e00f 	mov	lr, pc
    b3a0:	e12fff1c 	bx	ip
    b3a4:	e3740001 	cmn	r4, #1	; 0x1
    b3a8:	e5971004 	ldr	r1, [r7, #4]
    b3ac:	e2455004 	sub	r5, r5, #4	; 0x4
    b3b0:	e2466004 	sub	r6, r6, #4	; 0x4
    b3b4:	1affffe2 	bne	b344 <__call_exitprocs+0x68>
    b3b8:	e3510000 	cmp	r1, #0	; 0x0
    b3bc:	15973000 	ldrne	r3, [r7]
    b3c0:	1a000012 	bne	b410 <__call_exitprocs+0x134>
    b3c4:	e5973000 	ldr	r3, [r7]
    b3c8:	e3530000 	cmp	r3, #0	; 0x0
    b3cc:	0a00000f 	beq	b410 <__call_exitprocs+0x134>
    b3d0:	e1a00007 	mov	r0, r7
    b3d4:	e5893000 	str	r3, [r9]
    b3d8:	eb000925 	bl	d874 <free>
    b3dc:	e5997000 	ldr	r7, [r9]
    b3e0:	e3570000 	cmp	r7, #0	; 0x0
    b3e4:	1affffc5 	bne	b300 <__call_exitprocs+0x24>
    b3e8:	e8bd8ff0 	ldmia	sp!, {r4, r5, r6, r7, r8, r9, sl, fp, pc}
    b3ec:	e5150004 	ldr	r0, [r5, #-4]
    b3f0:	e1a0e00f 	mov	lr, pc
    b3f4:	e12fff1c 	bx	ip
    b3f8:	e5971004 	ldr	r1, [r7, #4]
    b3fc:	eaffffcb 	b	b330 <__call_exitprocs+0x54>
    b400:	e1a0e00f 	mov	lr, pc
    b404:	e12fff1c 	bx	ip
    b408:	e5971004 	ldr	r1, [r7, #4]
    b40c:	eaffffc7 	b	b330 <__call_exitprocs+0x54>
    b410:	e1a09007 	mov	r9, r7
    b414:	e1a07003 	mov	r7, r3
    b418:	eafffff0 	b	b3e0 <__call_exitprocs+0x104>
    b41c:	00010778 	andeq	r0, r1, r8, ror r7

0000b420 <quorem>:
    b420:	e92d4ff0 	stmdb	sp!, {r4, r5, r6, r7, r8, r9, sl, fp, lr}
    b424:	e5903010 	ldr	r3, [r0, #16]
    b428:	e5912010 	ldr	r2, [r1, #16]
    b42c:	e24dd00c 	sub	sp, sp, #12	; 0xc
    b430:	e1520003 	cmp	r2, r3
    b434:	e58d0000 	str	r0, [sp]
    b438:	e1a09001 	mov	r9, r1
    b43c:	c3a00000 	movgt	r0, #0	; 0x0
    b440:	ca000044 	bgt	b558 <quorem+0x138>
    b444:	e2815014 	add	r5, r1, #20	; 0x14
    b448:	e59d1000 	ldr	r1, [sp]
    b44c:	e2427001 	sub	r7, r2, #1	; 0x1
    b450:	e1a03107 	mov	r3, r7, lsl #2
    b454:	e2818014 	add	r8, r1, #20	; 0x14
    b458:	e7932008 	ldr	r2, [r3, r8]
    b45c:	e7951003 	ldr	r1, [r5, r3]
    b460:	e1a00002 	mov	r0, r2
    b464:	e2811001 	add	r1, r1, #1	; 0x1
    b468:	e085b003 	add	fp, r5, r3
    b46c:	e0833008 	add	r3, r3, r8
    b470:	e98d000c 	stmib	sp, {r2, r3}
    b474:	eb0011e7 	bl	fc18 <__aeabi_uidiv>
    b478:	e250a000 	subs	sl, r0, #0	; 0x0
    b47c:	1a000037 	bne	b560 <quorem+0x140>
    b480:	e1a01009 	mov	r1, r9
    b484:	e59d0000 	ldr	r0, [sp]
    b488:	eb000bc8 	bl	e3b0 <__mcmp>
    b48c:	e3500000 	cmp	r0, #0	; 0x0
    b490:	ba00002f 	blt	b554 <quorem+0x134>
    b494:	e3a04000 	mov	r4, #0	; 0x0
    b498:	e28aa001 	add	sl, sl, #1	; 0x1
    b49c:	e1a0e008 	mov	lr, r8
    b4a0:	e1a00004 	mov	r0, r4
    b4a4:	e4952004 	ldr	r2, [r5], #4
    b4a8:	e1a03802 	mov	r3, r2, lsl #16
    b4ac:	e1a03823 	mov	r3, r3, lsr #16
    b4b0:	e59ec000 	ldr	ip, [lr]
    b4b4:	e0803003 	add	r3, r0, r3
    b4b8:	e1a00823 	mov	r0, r3, lsr #16
    b4bc:	e0800822 	add	r0, r0, r2, lsr #16
    b4c0:	e1a03803 	mov	r3, r3, lsl #16
    b4c4:	e1a0180c 	mov	r1, ip, lsl #16
    b4c8:	e1a02800 	mov	r2, r0, lsl #16
    b4cc:	e1a01821 	mov	r1, r1, lsr #16
    b4d0:	e1a03823 	mov	r3, r3, lsr #16
    b4d4:	e0631001 	rsb	r1, r3, r1
    b4d8:	e1a02822 	mov	r2, r2, lsr #16
    b4dc:	e0811004 	add	r1, r1, r4
    b4e0:	e062282c 	rsb	r2, r2, ip, lsr #16
    b4e4:	e0822841 	add	r2, r2, r1, asr #16
    b4e8:	e15b0005 	cmp	fp, r5
    b4ec:	e1ce20b2 	strh	r2, [lr, #2]
    b4f0:	e1a00820 	mov	r0, r0, lsr #16
    b4f4:	e0ce10b4 	strh	r1, [lr], #4
    b4f8:	e1a04842 	mov	r4, r2, asr #16
    b4fc:	2affffe8 	bcs	b4a4 <quorem+0x84>
    b500:	e1a02107 	mov	r2, r7, lsl #2
    b504:	e7983002 	ldr	r3, [r8, r2]
    b508:	e3530000 	cmp	r3, #0	; 0x0
    b50c:	e0883002 	add	r3, r8, r2
    b510:	1a00000f 	bne	b554 <quorem+0x134>
    b514:	e2432004 	sub	r2, r3, #4	; 0x4
    b518:	e1580002 	cmp	r8, r2
    b51c:	2a00000a 	bcs	b54c <quorem+0x12c>
    b520:	e5133004 	ldr	r3, [r3, #-4]
    b524:	e3530000 	cmp	r3, #0	; 0x0
    b528:	0a000003 	beq	b53c <quorem+0x11c>
    b52c:	ea000006 	b	b54c <quorem+0x12c>
    b530:	e5923000 	ldr	r3, [r2]
    b534:	e3530000 	cmp	r3, #0	; 0x0
    b538:	1a000003 	bne	b54c <quorem+0x12c>
    b53c:	e2422004 	sub	r2, r2, #4	; 0x4
    b540:	e1580002 	cmp	r8, r2
    b544:	e2477001 	sub	r7, r7, #1	; 0x1
    b548:	3afffff8 	bcc	b530 <quorem+0x110>
    b54c:	e59d3000 	ldr	r3, [sp]
    b550:	e5837010 	str	r7, [r3, #16]
    b554:	e1a0000a 	mov	r0, sl
    b558:	e28dd00c 	add	sp, sp, #12	; 0xc
    b55c:	e8bd8ff0 	ldmia	sp!, {r4, r5, r6, r7, r8, r9, sl, fp, pc}
    b560:	e3a06000 	mov	r6, #0	; 0x0
    b564:	e1a0e008 	mov	lr, r8
    b568:	e1a04005 	mov	r4, r5
    b56c:	e1a0c006 	mov	ip, r6
    b570:	e4942004 	ldr	r2, [r4], #4
    b574:	e1a03802 	mov	r3, r2, lsl #16
    b578:	e1a03823 	mov	r3, r3, lsr #16
    b57c:	e021ca93 	mla	r1, r3, sl, ip
    b580:	e1a02822 	mov	r2, r2, lsr #16
    b584:	e1a03821 	mov	r3, r1, lsr #16
    b588:	e02c3a92 	mla	ip, r2, sl, r3
    b58c:	e59e0000 	ldr	r0, [lr]
    b590:	e1a01801 	mov	r1, r1, lsl #16
    b594:	e1a02800 	mov	r2, r0, lsl #16
    b598:	e1a0380c 	mov	r3, ip, lsl #16
    b59c:	e1a02822 	mov	r2, r2, lsr #16
    b5a0:	e1a01821 	mov	r1, r1, lsr #16
    b5a4:	e0612002 	rsb	r2, r1, r2
    b5a8:	e1a03823 	mov	r3, r3, lsr #16
    b5ac:	e0822006 	add	r2, r2, r6
    b5b0:	e0633820 	rsb	r3, r3, r0, lsr #16
    b5b4:	e0833842 	add	r3, r3, r2, asr #16
    b5b8:	e15b0004 	cmp	fp, r4
    b5bc:	e1ce30b2 	strh	r3, [lr, #2]
    b5c0:	e1a0c82c 	mov	ip, ip, lsr #16
    b5c4:	e0ce20b4 	strh	r2, [lr], #4
    b5c8:	e1a06843 	mov	r6, r3, asr #16
    b5cc:	2affffe7 	bcs	b570 <quorem+0x150>
    b5d0:	e59d3004 	ldr	r3, [sp, #4]
    b5d4:	e3530000 	cmp	r3, #0	; 0x0
    b5d8:	1affffa8 	bne	b480 <quorem+0x60>
    b5dc:	e59d1008 	ldr	r1, [sp, #8]
    b5e0:	e2412004 	sub	r2, r1, #4	; 0x4
    b5e4:	e1580002 	cmp	r8, r2
    b5e8:	2a00000a 	bcs	b618 <quorem+0x1f8>
    b5ec:	e5113004 	ldr	r3, [r1, #-4]
    b5f0:	e3530000 	cmp	r3, #0	; 0x0
    b5f4:	0a000003 	beq	b608 <quorem+0x1e8>
    b5f8:	ea000006 	b	b618 <quorem+0x1f8>
    b5fc:	e5923000 	ldr	r3, [r2]
    b600:	e3530000 	cmp	r3, #0	; 0x0
    b604:	1a000003 	bne	b618 <quorem+0x1f8>
    b608:	e2422004 	sub	r2, r2, #4	; 0x4
    b60c:	e1580002 	cmp	r8, r2
    b610:	e2477001 	sub	r7, r7, #1	; 0x1
    b614:	3afffff8 	bcc	b5fc <quorem+0x1dc>
    b618:	e59d2000 	ldr	r2, [sp]
    b61c:	e5827010 	str	r7, [r2, #16]
    b620:	eaffff96 	b	b480 <quorem+0x60>

0000b624 <_dtoa_r>:
    b624:	e92d4ff0 	stmdb	sp!, {r4, r5, r6, r7, r8, r9, sl, fp, lr}
    b628:	e590c040 	ldr	ip, [r0, #64]
    b62c:	e24dd058 	sub	sp, sp, #88	; 0x58
    b630:	e35c0000 	cmp	ip, #0	; 0x0
    b634:	e58d0008 	str	r0, [sp, #8]
    b638:	e58d3004 	str	r3, [sp, #4]
    b63c:	e1a08001 	mov	r8, r1
    b640:	e1a09002 	mov	r9, r2
    b644:	e59d4084 	ldr	r4, [sp, #132]
    b648:	0a00000a 	beq	b678 <_dtoa_r+0x54>
    b64c:	e5903044 	ldr	r3, [r0, #68]
    b650:	e58c3004 	str	r3, [ip, #4]
    b654:	e5902044 	ldr	r2, [r0, #68]
    b658:	e3a03001 	mov	r3, #1	; 0x1
    b65c:	e1a03213 	mov	r3, r3, lsl r2
    b660:	e1a0100c 	mov	r1, ip
    b664:	e58c3008 	str	r3, [ip, #8]
    b668:	eb000b0e 	bl	e2a8 <_Bfree>
    b66c:	e59d2008 	ldr	r2, [sp, #8]
    b670:	e3a03000 	mov	r3, #0	; 0x0
    b674:	e5823040 	str	r3, [r2, #64]
    b678:	e2583000 	subs	r3, r8, #0	; 0x0
    b67c:	b3c38102 	biclt	r8, r3, #-2147483648	; 0x80000000
    b680:	a3a03000 	movge	r3, #0	; 0x0
    b684:	b3a03001 	movlt	r3, #1	; 0x1
    b688:	e3c82102 	bic	r2, r8, #-2147483648	; 0x80000000
    b68c:	b5843000 	strlt	r3, [r4]
    b690:	a5843000 	strge	r3, [r4]
    b694:	e1a02a22 	mov	r2, r2, lsr #20
    b698:	e3a0347f 	mov	r3, #2130706432	; 0x7f000000
    b69c:	e283360f 	add	r3, r3, #15728640	; 0xf00000
    b6a0:	e1a02a02 	mov	r2, r2, lsl #20
    b6a4:	e1520003 	cmp	r2, r3
    b6a8:	e1a04008 	mov	r4, r8
    b6ac:	0a000087 	beq	b8d0 <.text+0x38b0>
    b6b0:	e1a00008 	mov	r0, r8
    b6b4:	e1a01009 	mov	r1, r9
    b6b8:	e3a02000 	mov	r2, #0	; 0x0
    b6bc:	e3a03000 	mov	r3, #0	; 0x0
    b6c0:	e58d800c 	str	r8, [sp, #12]
    b6c4:	e58d9010 	str	r9, [sp, #16]
    b6c8:	eb0013b7 	bl	105ac <__cmpdf2>
    b6cc:	e3500000 	cmp	r0, #0	; 0x0
    b6d0:	1a00000b 	bne	b704 <_dtoa_r+0xe0>
    b6d4:	e59d2088 	ldr	r2, [sp, #136]
    b6d8:	e59dc080 	ldr	ip, [sp, #128]
    b6dc:	e3520000 	cmp	r2, #0	; 0x0
    b6e0:	e3a03001 	mov	r3, #1	; 0x1
    b6e4:	e58c3000 	str	r3, [ip]
    b6e8:	159de088 	ldrne	lr, [sp, #136]
    b6ec:	159f3448 	ldrne	r3, [pc, #1096]	; bb3c <.text+0x3b1c>
    b6f0:	059f0448 	ldreq	r0, [pc, #1096]	; bb40 <.text+0x3b20>
    b6f4:	158e3000 	strne	r3, [lr]
    b6f8:	12430001 	subne	r0, r3, #1	; 0x1
    b6fc:	e28dd058 	add	sp, sp, #88	; 0x58
    b700:	e8bd8ff0 	ldmia	sp!, {r4, r5, r6, r7, r8, r9, sl, fp, pc}
    b704:	e28d100c 	add	r1, sp, #12	; 0xc
    b708:	e8910006 	ldmia	r1, {r1, r2}
    b70c:	e28d3050 	add	r3, sp, #80	; 0x50
    b710:	e28dc054 	add	ip, sp, #84	; 0x54
    b714:	e59d0008 	ldr	r0, [sp, #8]
    b718:	e58dc000 	str	ip, [sp]
    b71c:	eb000bd7 	bl	e680 <_d2b>
    b720:	e1a03a28 	mov	r3, r8, lsr #20
    b724:	e1a02a83 	mov	r2, r3, lsl #21
    b728:	e1a02aa2 	mov	r2, r2, lsr #21
    b72c:	e3520000 	cmp	r2, #0	; 0x0
    b730:	e58d0038 	str	r0, [sp, #56]
    b734:	0a00007c 	beq	b92c <.text+0x390c>
    b738:	e28d000c 	add	r0, sp, #12	; 0xc
    b73c:	e8900003 	ldmia	r0, {r0, r1}
    b740:	e3c034ff 	bic	r3, r0, #-16777216	; 0xff000000
    b744:	e2426fff 	sub	r6, r2, #1020	; 0x3fc
    b748:	e3c3360f 	bic	r3, r3, #15728640	; 0xf00000
    b74c:	e3a02000 	mov	r2, #0	; 0x0
    b750:	e38305ff 	orr	r0, r3, #1069547520	; 0x3fc00000
    b754:	e59d7054 	ldr	r7, [sp, #84]
    b758:	e58d2034 	str	r2, [sp, #52]
    b75c:	e2466003 	sub	r6, r6, #3	; 0x3
    b760:	e3800603 	orr	r0, r0, #3145728	; 0x300000
    b764:	e3a025ff 	mov	r2, #1069547520	; 0x3fc00000
    b768:	e282270e 	add	r2, r2, #3670016	; 0x380000
    b76c:	e3a03000 	mov	r3, #0	; 0x0
    b770:	eb00116f 	bl	fd34 <__aeabi_dsub>
    b774:	e28f2fea 	add	r2, pc, #936	; 0x3a8
    b778:	e892000c 	ldmia	r2, {r2, r3}
    b77c:	eb00126a 	bl	1012c <__aeabi_dmul>
    b780:	e28f2fe9 	add	r2, pc, #932	; 0x3a4
    b784:	e892000c 	ldmia	r2, {r2, r3}
    b788:	eb00116a 	bl	fd38 <__adddf3>
    b78c:	e1a04000 	mov	r4, r0
    b790:	e1a00006 	mov	r0, r6
    b794:	e1a05001 	mov	r5, r1
    b798:	eb001228 	bl	10040 <__aeabi_i2d>
    b79c:	e28f2e39 	add	r2, pc, #912	; 0x390
    b7a0:	e892000c 	ldmia	r2, {r2, r3}
    b7a4:	eb001260 	bl	1012c <__aeabi_dmul>
    b7a8:	e1a02000 	mov	r2, r0
    b7ac:	e1a03001 	mov	r3, r1
    b7b0:	e1a00004 	mov	r0, r4
    b7b4:	e1a01005 	mov	r1, r5
    b7b8:	eb00115e 	bl	fd38 <__adddf3>
    b7bc:	e1a04000 	mov	r4, r0
    b7c0:	e1a05001 	mov	r5, r1
    b7c4:	eb0013be 	bl	106c4 <__aeabi_d2iz>
    b7c8:	e1a01005 	mov	r1, r5
    b7cc:	e58d0024 	str	r0, [sp, #36]
    b7d0:	e3a02000 	mov	r2, #0	; 0x0
    b7d4:	e1a00004 	mov	r0, r4
    b7d8:	e3a03000 	mov	r3, #0	; 0x0
    b7dc:	eb001370 	bl	105a4 <__ledf2>
    b7e0:	e3500000 	cmp	r0, #0	; 0x0
    b7e4:	ba000301 	blt	c3f0 <.text+0x43d0>
    b7e8:	e59de024 	ldr	lr, [sp, #36]
    b7ec:	e35e0016 	cmp	lr, #22	; 0x16
    b7f0:	83a00001 	movhi	r0, #1	; 0x1
    b7f4:	858d0028 	strhi	r0, [sp, #40]
    b7f8:	8a00000e 	bhi	b838 <_dtoa_r+0x214>
    b7fc:	e59d2024 	ldr	r2, [sp, #36]
    b800:	e59f1344 	ldr	r1, [pc, #836]	; bb4c <.text+0x3b2c>
    b804:	e0811182 	add	r1, r1, r2, lsl #3
    b808:	e891000c 	ldmia	r1, {r2, r3}
    b80c:	e28d000c 	add	r0, sp, #12	; 0xc
    b810:	e8900003 	ldmia	r0, {r0, r1}
    b814:	eb001362 	bl	105a4 <__ledf2>
    b818:	e3500000 	cmp	r0, #0	; 0x0
    b81c:	b59dc024 	ldrlt	ip, [sp, #36]
    b820:	a3a03000 	movge	r3, #0	; 0x0
    b824:	b24cc001 	sublt	ip, ip, #1	; 0x1
    b828:	b3a0e000 	movlt	lr, #0	; 0x0
    b82c:	a58d3028 	strge	r3, [sp, #40]
    b830:	b58dc024 	strlt	ip, [sp, #36]
    b834:	b58de028 	strlt	lr, [sp, #40]
    b838:	e0663007 	rsb	r3, r6, r7
    b83c:	e2532001 	subs	r2, r3, #1	; 0x1
    b840:	e59d1024 	ldr	r1, [sp, #36]
    b844:	42622000 	rsbmi	r2, r2, #0	; 0x0
    b848:	53a00000 	movpl	r0, #0	; 0x0
    b84c:	51a0b002 	movpl	fp, r2
    b850:	458d2014 	strmi	r2, [sp, #20]
    b854:	43a0b000 	movmi	fp, #0	; 0x0
    b858:	558d0014 	strpl	r0, [sp, #20]
    b85c:	e3510000 	cmp	r1, #0	; 0x0
    b860:	a3a02000 	movge	r2, #0	; 0x0
    b864:	a08bb001 	addge	fp, fp, r1
    b868:	a58d1030 	strge	r1, [sp, #48]
    b86c:	a58d2018 	strge	r2, [sp, #24]
    b870:	ba0002ea 	blt	c420 <.text+0x4400>
    b874:	e59d1004 	ldr	r1, [sp, #4]
    b878:	e3510009 	cmp	r1, #9	; 0x9
    b87c:	83a02000 	movhi	r2, #0	; 0x0
    b880:	858d2004 	strhi	r2, [sp, #4]
    b884:	83a05001 	movhi	r5, #1	; 0x1
    b888:	8a00003e 	bhi	b988 <.text+0x3968>
    b88c:	e59d3004 	ldr	r3, [sp, #4]
    b890:	e3530005 	cmp	r3, #5	; 0x5
    b894:	c59dc004 	ldrgt	ip, [sp, #4]
    b898:	c24cc004 	subgt	ip, ip, #4	; 0x4
    b89c:	c58dc004 	strgt	ip, [sp, #4]
    b8a0:	e59de004 	ldr	lr, [sp, #4]
    b8a4:	d3a00001 	movle	r0, #1	; 0x1
    b8a8:	c3a00000 	movgt	r0, #0	; 0x0
    b8ac:	e35e0005 	cmp	lr, #5	; 0x5
    b8b0:	979ff10e 	ldrls	pc, [pc, lr, lsl #2]
    b8b4:	ea00027d 	b	c2b0 <.text+0x4290>
    b8b8:	0000b984 	andeq	fp, r0, r4, lsl #19
    b8bc:	0000b984 	andeq	fp, r0, r4, lsl #19
    b8c0:	0000c3a0 	andeq	ip, r0, r0, lsr #7
    b8c4:	0000c314 	andeq	ip, r0, r4, lsl r3
    b8c8:	0000c358 	andeq	ip, r0, r8, asr r3
    b8cc:	0000c394 	muleq	r0, r4, r3
    b8d0:	e3a03c27 	mov	r3, #9984	; 0x2700
    b8d4:	e59dc080 	ldr	ip, [sp, #128]
    b8d8:	e283300f 	add	r3, r3, #15	; 0xf
    b8dc:	e3590000 	cmp	r9, #0	; 0x0
    b8e0:	e58c3000 	str	r3, [ip]
    b8e4:	0a00000a 	beq	b914 <.text+0x38f4>
    b8e8:	e59f0254 	ldr	r0, [pc, #596]	; bb44 <.text+0x3b24>
    b8ec:	e59de088 	ldr	lr, [sp, #136]
    b8f0:	e35e0000 	cmp	lr, #0	; 0x0
    b8f4:	0affff80 	beq	b6fc <_dtoa_r+0xd8>
    b8f8:	e5d03003 	ldrb	r3, [r0, #3]
    b8fc:	e59d1088 	ldr	r1, [sp, #136]
    b900:	e3530000 	cmp	r3, #0	; 0x0
    b904:	e2803003 	add	r3, r0, #3	; 0x3
    b908:	12803008 	addne	r3, r0, #8	; 0x8
    b90c:	e5813000 	str	r3, [r1]
    b910:	eaffff79 	b	b6fc <_dtoa_r+0xd8>
    b914:	e3c834ff 	bic	r3, r8, #-16777216	; 0xff000000
    b918:	e3c3360f 	bic	r3, r3, #15728640	; 0xf00000
    b91c:	e3530000 	cmp	r3, #0	; 0x0
    b920:	059f0220 	ldreq	r0, [pc, #544]	; bb48 <.text+0x3b28>
    b924:	0afffff0 	beq	b8ec <.text+0x38cc>
    b928:	eaffffee 	b	b8e8 <.text+0x38c8>
    b92c:	e28d2050 	add	r2, sp, #80	; 0x50
    b930:	e8920084 	ldmia	r2, {r2, r7}
    b934:	e2873e43 	add	r3, r7, #1072	; 0x430
    b938:	e2833002 	add	r3, r3, #2	; 0x2
    b93c:	e0835002 	add	r5, r3, r2
    b940:	e3550020 	cmp	r5, #32	; 0x20
    b944:	c2453020 	subgt	r3, r5, #32	; 0x20
    b948:	c1a03339 	movgt	r3, r9, lsr r3
    b94c:	c2652040 	rsbgt	r2, r5, #64	; 0x40
    b950:	d2653020 	rsble	r3, r5, #32	; 0x20
    b954:	c1834218 	orrgt	r4, r3, r8, lsl r2
    b958:	d1a04319 	movle	r4, r9, lsl r3
    b95c:	e1a00004 	mov	r0, r4
    b960:	eb0011b6 	bl	10040 <__aeabi_i2d>
    b964:	e3540000 	cmp	r4, #0	; 0x0
    b968:	ba0003c7 	blt	c88c <.text+0x486c>
    b96c:	e2456e43 	sub	r6, r5, #1072	; 0x430
    b970:	e3a03001 	mov	r3, #1	; 0x1
    b974:	e2466003 	sub	r6, r6, #3	; 0x3
    b978:	e240061f 	sub	r0, r0, #32505856	; 0x1f00000
    b97c:	e58d3034 	str	r3, [sp, #52]
    b980:	eaffff77 	b	b764 <_dtoa_r+0x140>
    b984:	e1a05000 	mov	r5, r0
    b988:	e3a03000 	mov	r3, #0	; 0x0
    b98c:	e3e0c000 	mvn	ip, #0	; 0x0
    b990:	e3a0e001 	mov	lr, #1	; 0x1
    b994:	e58d307c 	str	r3, [sp, #124]
    b998:	e58dc020 	str	ip, [sp, #32]
    b99c:	e58dc01c 	str	ip, [sp, #28]
    b9a0:	e58de02c 	str	lr, [sp, #44]
    b9a4:	e1a04003 	mov	r4, r3
    b9a8:	e59dc008 	ldr	ip, [sp, #8]
    b9ac:	e3a03000 	mov	r3, #0	; 0x0
    b9b0:	e58c3044 	str	r3, [ip, #68]
    b9b4:	e59d0008 	ldr	r0, [sp, #8]
    b9b8:	e5901044 	ldr	r1, [r0, #68]
    b9bc:	eb000b09 	bl	e5e8 <_Balloc>
    b9c0:	e59dc008 	ldr	ip, [sp, #8]
    b9c4:	e1150004 	tst	r5, r4
    b9c8:	e58d0040 	str	r0, [sp, #64]
    b9cc:	e58c0040 	str	r0, [ip, #64]
    b9d0:	0a0000dc 	beq	bd48 <.text+0x3d28>
    b9d4:	e59de024 	ldr	lr, [sp, #36]
    b9d8:	e35e0000 	cmp	lr, #0	; 0x0
    b9dc:	da000388 	ble	c804 <.text+0x47e4>
    b9e0:	e59f3164 	ldr	r3, [pc, #356]	; bb4c <.text+0x3b2c>
    b9e4:	e20e200f 	and	r2, lr, #15	; 0xf
    b9e8:	e1a0424e 	mov	r4, lr, asr #4
    b9ec:	e0833182 	add	r3, r3, r2, lsl #3
    b9f0:	e3140010 	tst	r4, #16	; 0x10
    b9f4:	e8930060 	ldmia	r3, {r5, r6}
    b9f8:	03a0a002 	moveq	sl, #2	; 0x2
    b9fc:	1a0001b4 	bne	c0d4 <.text+0x40b4>
    ba00:	e3540000 	cmp	r4, #0	; 0x0
    ba04:	0a00000c 	beq	ba3c <.text+0x3a1c>
    ba08:	e59f7140 	ldr	r7, [pc, #320]	; bb50 <.text+0x3b30>
    ba0c:	e3140001 	tst	r4, #1	; 0x1
    ba10:	e1a00005 	mov	r0, r5
    ba14:	e1a01006 	mov	r1, r6
    ba18:	0a000004 	beq	ba30 <.text+0x3a10>
    ba1c:	e897000c 	ldmia	r7, {r2, r3}
    ba20:	eb0011c1 	bl	1012c <__aeabi_dmul>
    ba24:	e28aa001 	add	sl, sl, #1	; 0x1
    ba28:	e1a05000 	mov	r5, r0
    ba2c:	e1a06001 	mov	r6, r1
    ba30:	e1b040c4 	movs	r4, r4, asr #1
    ba34:	e2877008 	add	r7, r7, #8	; 0x8
    ba38:	1afffff3 	bne	ba0c <.text+0x39ec>
    ba3c:	e1a00008 	mov	r0, r8
    ba40:	e1a01009 	mov	r1, r9
    ba44:	e1a02005 	mov	r2, r5
    ba48:	e1a03006 	mov	r3, r6
    ba4c:	eb001251 	bl	10398 <__aeabi_ddiv>
    ba50:	e1a08000 	mov	r8, r0
    ba54:	e1a09001 	mov	r9, r1
    ba58:	e59d1028 	ldr	r1, [sp, #40]
    ba5c:	e3510000 	cmp	r1, #0	; 0x0
    ba60:	0a00003b 	beq	bb54 <.text+0x3b34>
    ba64:	e3a025ff 	mov	r2, #1069547520	; 0x3fc00000
    ba68:	e2822603 	add	r2, r2, #3145728	; 0x300000
    ba6c:	e3a03000 	mov	r3, #0	; 0x0
    ba70:	e1a00008 	mov	r0, r8
    ba74:	e1a01009 	mov	r1, r9
    ba78:	eb0012c9 	bl	105a4 <__ledf2>
    ba7c:	e59d201c 	ldr	r2, [sp, #28]
    ba80:	e3500000 	cmp	r0, #0	; 0x0
    ba84:	e3a03000 	mov	r3, #0	; 0x0
    ba88:	b3a03001 	movlt	r3, #1	; 0x1
    ba8c:	e3520000 	cmp	r2, #0	; 0x0
    ba90:	d3a03000 	movle	r3, #0	; 0x0
    ba94:	c2033001 	andgt	r3, r3, #1	; 0x1
    ba98:	e3530000 	cmp	r3, #0	; 0x0
    ba9c:	e1a04008 	mov	r4, r8
    baa0:	e1a05009 	mov	r5, r9
    baa4:	0a00002a 	beq	bb54 <.text+0x3b34>
    baa8:	e59d3020 	ldr	r3, [sp, #32]
    baac:	e3530000 	cmp	r3, #0	; 0x0
    bab0:	da0000a2 	ble	bd40 <.text+0x3d20>
    bab4:	e3a02101 	mov	r2, #1073741824	; 0x40000000
    bab8:	e2822709 	add	r2, r2, #2359296	; 0x240000
    babc:	e3a03000 	mov	r3, #0	; 0x0
    bac0:	e1a00008 	mov	r0, r8
    bac4:	e1a01009 	mov	r1, r9
    bac8:	eb001197 	bl	1012c <__aeabi_dmul>
    bacc:	e1a04000 	mov	r4, r0
    bad0:	e28a0001 	add	r0, sl, #1	; 0x1
    bad4:	e1a05001 	mov	r5, r1
    bad8:	eb001158 	bl	10040 <__aeabi_i2d>
    badc:	e1a02000 	mov	r2, r0
    bae0:	e1a03001 	mov	r3, r1
    bae4:	e1a00004 	mov	r0, r4
    bae8:	e1a01005 	mov	r1, r5
    baec:	eb00118e 	bl	1012c <__aeabi_dmul>
    baf0:	e3a02101 	mov	r2, #1073741824	; 0x40000000
    baf4:	e2822707 	add	r2, r2, #1835008	; 0x1c0000
    baf8:	e3a03000 	mov	r3, #0	; 0x0
    bafc:	eb00108d 	bl	fd38 <__adddf3>
    bb00:	e28da020 	add	sl, sp, #32	; 0x20
    bb04:	e89a1400 	ldmia	sl, {sl, ip}
    bb08:	e24cc001 	sub	ip, ip, #1	; 0x1
    bb0c:	e1a07001 	mov	r7, r1
    bb10:	e1a08004 	mov	r8, r4
    bb14:	e1a09005 	mov	r9, r5
    bb18:	e240650d 	sub	r6, r0, #54525952	; 0x3400000
    bb1c:	e58dc04c 	str	ip, [sp, #76]
    bb20:	ea00001c 	b	bb98 <.text+0x3b78>
    bb24:	3fd287a7 	svccc	0x00d287a7
    bb28:	636f4361 	cmnvs	pc, #-2080374783	; 0x84000001
    bb2c:	3fc68a28 	svccc	0x00c68a28
    bb30:	8b60c8b3 	blhi	183de04 <_stack+0x17bde04>
    bb34:	3fd34413 	svccc	0x00d34413
    bb38:	509f79fb 	ldrplsh	r7, [pc], fp
    bb3c:	000107d9 	ldreqd	r0, [r1], -r9
    bb40:	000107d8 	ldreqd	r0, [r1], -r8
    bb44:	00010834 	andeq	r0, r1, r4, lsr r8
    bb48:	00010828 	andeq	r0, r1, r8, lsr #16
    bb4c:	00010878 	andeq	r0, r1, r8, ror r8
    bb50:	00010940 	andeq	r0, r1, r0, asr #18
    bb54:	e1a0000a 	mov	r0, sl
    bb58:	eb001138 	bl	10040 <__aeabi_i2d>
    bb5c:	e1a02008 	mov	r2, r8
    bb60:	e1a03009 	mov	r3, r9
    bb64:	eb001170 	bl	1012c <__aeabi_dmul>
    bb68:	e3a02101 	mov	r2, #1073741824	; 0x40000000
    bb6c:	e2822707 	add	r2, r2, #1835008	; 0x1c0000
    bb70:	e3a03000 	mov	r3, #0	; 0x0
    bb74:	eb00106f 	bl	fd38 <__adddf3>
    bb78:	e59de01c 	ldr	lr, [sp, #28]
    bb7c:	e35e0000 	cmp	lr, #0	; 0x0
    bb80:	e1a07001 	mov	r7, r1
    bb84:	e240650d 	sub	r6, r0, #54525952	; 0x3400000
    bb88:	0a00015c 	beq	c100 <.text+0x40e0>
    bb8c:	e59d0024 	ldr	r0, [sp, #36]
    bb90:	e59da01c 	ldr	sl, [sp, #28]
    bb94:	e58d004c 	str	r0, [sp, #76]
    bb98:	e59d102c 	ldr	r1, [sp, #44]
    bb9c:	e3510000 	cmp	r1, #0	; 0x0
    bba0:	0a0002c5 	beq	c6bc <.text+0x469c>
    bba4:	e51f1060 	ldr	r1, [pc, #-96]	; bb4c <.text+0x3b2c>
    bba8:	e3a005ff 	mov	r0, #1069547520	; 0x3fc00000
    bbac:	e081118a 	add	r1, r1, sl, lsl #3
    bbb0:	e911000c 	ldmdb	r1, {r2, r3}
    bbb4:	e2800602 	add	r0, r0, #2097152	; 0x200000
    bbb8:	e3a01000 	mov	r1, #0	; 0x0
    bbbc:	eb0011f5 	bl	10398 <__aeabi_ddiv>
    bbc0:	e1a02006 	mov	r2, r6
    bbc4:	e1a03007 	mov	r3, r7
    bbc8:	eb001059 	bl	fd34 <__aeabi_dsub>
    bbcc:	e1a06008 	mov	r6, r8
    bbd0:	e1a07009 	mov	r7, r9
    bbd4:	e1a08000 	mov	r8, r0
    bbd8:	e1a09001 	mov	r9, r1
    bbdc:	e1a00006 	mov	r0, r6
    bbe0:	e1a01007 	mov	r1, r7
    bbe4:	eb0012b6 	bl	106c4 <__aeabi_d2iz>
    bbe8:	e1a04000 	mov	r4, r0
    bbec:	eb001113 	bl	10040 <__aeabi_i2d>
    bbf0:	e1a02000 	mov	r2, r0
    bbf4:	e1a03001 	mov	r3, r1
    bbf8:	e1a00006 	mov	r0, r6
    bbfc:	e1a01007 	mov	r1, r7
    bc00:	eb00104b 	bl	fd34 <__aeabi_dsub>
    bc04:	e59d7040 	ldr	r7, [sp, #64]
    bc08:	e1a05000 	mov	r5, r0
    bc0c:	e1a06001 	mov	r6, r1
    bc10:	e2844030 	add	r4, r4, #48	; 0x30
    bc14:	e4c74001 	strb	r4, [r7], #1
    bc18:	e1a00008 	mov	r0, r8
    bc1c:	e1a01009 	mov	r1, r9
    bc20:	e1a02005 	mov	r2, r5
    bc24:	e1a03006 	mov	r3, r6
    bc28:	eb00125b 	bl	1059c <__gedf2>
    bc2c:	e3500000 	cmp	r0, #0	; 0x0
    bc30:	ca00003f 	bgt	bd34 <.text+0x3d14>
    bc34:	e3a005ff 	mov	r0, #1069547520	; 0x3fc00000
    bc38:	e1a02005 	mov	r2, r5
    bc3c:	e1a03006 	mov	r3, r6
    bc40:	e2800603 	add	r0, r0, #3145728	; 0x300000
    bc44:	e3a01000 	mov	r1, #0	; 0x0
    bc48:	eb001039 	bl	fd34 <__aeabi_dsub>
    bc4c:	e1a02000 	mov	r2, r0
    bc50:	e1a03001 	mov	r3, r1
    bc54:	e1a00008 	mov	r0, r8
    bc58:	e1a01009 	mov	r1, r9
    bc5c:	eb00124e 	bl	1059c <__gedf2>
    bc60:	e3500000 	cmp	r0, #0	; 0x0
    bc64:	ca000088 	bgt	be8c <.text+0x3e6c>
    bc68:	e35a0001 	cmp	sl, #1	; 0x1
    bc6c:	ca00000a 	bgt	bc9c <.text+0x3c7c>
    bc70:	ea000032 	b	bd40 <.text+0x3d20>
    bc74:	eb00102e 	bl	fd34 <__aeabi_dsub>
    bc78:	e1a02008 	mov	r2, r8
    bc7c:	e1a03009 	mov	r3, r9
    bc80:	eb001247 	bl	105a4 <__ledf2>
    bc84:	e59d2040 	ldr	r2, [sp, #64]
    bc88:	e3500000 	cmp	r0, #0	; 0x0
    bc8c:	e082300a 	add	r3, r2, sl
    bc90:	ba00007d 	blt	be8c <.text+0x3e6c>
    bc94:	e1570003 	cmp	r7, r3
    bc98:	0a000028 	beq	bd40 <.text+0x3d20>
    bc9c:	e3a02101 	mov	r2, #1073741824	; 0x40000000
    bca0:	e1a00008 	mov	r0, r8
    bca4:	e1a01009 	mov	r1, r9
    bca8:	e2822709 	add	r2, r2, #2359296	; 0x240000
    bcac:	e3a03000 	mov	r3, #0	; 0x0
    bcb0:	eb00111d 	bl	1012c <__aeabi_dmul>
    bcb4:	e3a02101 	mov	r2, #1073741824	; 0x40000000
    bcb8:	e2822709 	add	r2, r2, #2359296	; 0x240000
    bcbc:	e3a03000 	mov	r3, #0	; 0x0
    bcc0:	e1a08000 	mov	r8, r0
    bcc4:	e1a09001 	mov	r9, r1
    bcc8:	e1a00005 	mov	r0, r5
    bccc:	e1a01006 	mov	r1, r6
    bcd0:	eb001115 	bl	1012c <__aeabi_dmul>
    bcd4:	e1a06001 	mov	r6, r1
    bcd8:	e1a05000 	mov	r5, r0
    bcdc:	eb001278 	bl	106c4 <__aeabi_d2iz>
    bce0:	e1a04000 	mov	r4, r0
    bce4:	eb0010d5 	bl	10040 <__aeabi_i2d>
    bce8:	e1a02000 	mov	r2, r0
    bcec:	e1a03001 	mov	r3, r1
    bcf0:	e1a00005 	mov	r0, r5
    bcf4:	e1a01006 	mov	r1, r6
    bcf8:	eb00100d 	bl	fd34 <__aeabi_dsub>
    bcfc:	e2844030 	add	r4, r4, #48	; 0x30
    bd00:	e1a02008 	mov	r2, r8
    bd04:	e1a03009 	mov	r3, r9
    bd08:	e4c74001 	strb	r4, [r7], #1
    bd0c:	e1a06001 	mov	r6, r1
    bd10:	e1a05000 	mov	r5, r0
    bd14:	eb001222 	bl	105a4 <__ledf2>
    bd18:	e3500000 	cmp	r0, #0	; 0x0
    bd1c:	e3a005ff 	mov	r0, #1069547520	; 0x3fc00000
    bd20:	e1a02005 	mov	r2, r5
    bd24:	e1a03006 	mov	r3, r6
    bd28:	e2800603 	add	r0, r0, #3145728	; 0x300000
    bd2c:	e3a01000 	mov	r1, #0	; 0x0
    bd30:	aaffffcf 	bge	bc74 <.text+0x3c54>
    bd34:	e59d304c 	ldr	r3, [sp, #76]
    bd38:	e58d3024 	str	r3, [sp, #36]
    bd3c:	ea00011a 	b	c1ac <.text+0x418c>
    bd40:	e28d800c 	add	r8, sp, #12	; 0xc
    bd44:	e8980300 	ldmia	r8, {r8, r9}
    bd48:	e59d2050 	ldr	r2, [sp, #80]
    bd4c:	e59de024 	ldr	lr, [sp, #36]
    bd50:	e1e03002 	mvn	r3, r2
    bd54:	e1a03fa3 	mov	r3, r3, lsr #31
    bd58:	e35e000e 	cmp	lr, #14	; 0xe
    bd5c:	c3a03000 	movgt	r3, #0	; 0x0
    bd60:	e3530000 	cmp	r3, #0	; 0x0
    bd64:	0a00005d 	beq	bee0 <.text+0x3ec0>
    bd68:	e59d001c 	ldr	r0, [sp, #28]
    bd6c:	e59d107c 	ldr	r1, [sp, #124]
    bd70:	e51f322c 	ldr	r3, [pc, #-556]	; bb4c <.text+0x3b2c>
    bd74:	e3500000 	cmp	r0, #0	; 0x0
    bd78:	c3a02000 	movgt	r2, #0	; 0x0
    bd7c:	d3a02001 	movle	r2, #1	; 0x1
    bd80:	e083318e 	add	r3, r3, lr, lsl #3
    bd84:	e0121fa1 	ands	r1, r2, r1, lsr #31
    bd88:	e8930c00 	ldmia	r3, {sl, fp}
    bd8c:	1a000137 	bne	c270 <.text+0x4250>
    bd90:	e59d2040 	ldr	r2, [sp, #64]
    bd94:	e59d301c 	ldr	r3, [sp, #28]
    bd98:	e1a04008 	mov	r4, r8
    bd9c:	e1a05009 	mov	r5, r9
    bda0:	e0828003 	add	r8, r2, r3
    bda4:	e1a07002 	mov	r7, r2
    bda8:	ea000007 	b	bdcc <.text+0x3dac>
    bdac:	eb0010de 	bl	1012c <__aeabi_dmul>
    bdb0:	e3a02000 	mov	r2, #0	; 0x0
    bdb4:	e3a03000 	mov	r3, #0	; 0x0
    bdb8:	e1a04000 	mov	r4, r0
    bdbc:	e1a05001 	mov	r5, r1
    bdc0:	eb0011f9 	bl	105ac <__cmpdf2>
    bdc4:	e3500000 	cmp	r0, #0	; 0x0
    bdc8:	0a0000f7 	beq	c1ac <.text+0x418c>
    bdcc:	e1a0200a 	mov	r2, sl
    bdd0:	e1a0300b 	mov	r3, fp
    bdd4:	e1a00004 	mov	r0, r4
    bdd8:	e1a01005 	mov	r1, r5
    bddc:	eb00116d 	bl	10398 <__aeabi_ddiv>
    bde0:	eb001237 	bl	106c4 <__aeabi_d2iz>
    bde4:	e1a06000 	mov	r6, r0
    bde8:	eb001094 	bl	10040 <__aeabi_i2d>
    bdec:	e1a02000 	mov	r2, r0
    bdf0:	e1a03001 	mov	r3, r1
    bdf4:	e1a0000a 	mov	r0, sl
    bdf8:	e1a0100b 	mov	r1, fp
    bdfc:	eb0010ca 	bl	1012c <__aeabi_dmul>
    be00:	e1a02000 	mov	r2, r0
    be04:	e1a03001 	mov	r3, r1
    be08:	e1a00004 	mov	r0, r4
    be0c:	e1a01005 	mov	r1, r5
    be10:	eb000fc7 	bl	fd34 <__aeabi_dsub>
    be14:	e286c030 	add	ip, r6, #48	; 0x30
    be18:	e4c7c001 	strb	ip, [r7], #1
    be1c:	e3a02101 	mov	r2, #1073741824	; 0x40000000
    be20:	e1570008 	cmp	r7, r8
    be24:	e2822709 	add	r2, r2, #2359296	; 0x240000
    be28:	e3a03000 	mov	r3, #0	; 0x0
    be2c:	1affffde 	bne	bdac <.text+0x3d8c>
    be30:	e1a02000 	mov	r2, r0
    be34:	e1a03001 	mov	r3, r1
    be38:	eb000fbe 	bl	fd38 <__adddf3>
    be3c:	e1a04000 	mov	r4, r0
    be40:	e1a05001 	mov	r5, r1
    be44:	e1a0000a 	mov	r0, sl
    be48:	e1a0100b 	mov	r1, fp
    be4c:	e1a02004 	mov	r2, r4
    be50:	e1a03005 	mov	r3, r5
    be54:	eb0011d2 	bl	105a4 <__ledf2>
    be58:	e3500000 	cmp	r0, #0	; 0x0
    be5c:	ba000008 	blt	be84 <.text+0x3e64>
    be60:	e1a0000a 	mov	r0, sl
    be64:	e1a0100b 	mov	r1, fp
    be68:	e1a02004 	mov	r2, r4
    be6c:	e1a03005 	mov	r3, r5
    be70:	eb0011cd 	bl	105ac <__cmpdf2>
    be74:	e3500000 	cmp	r0, #0	; 0x0
    be78:	1a0000cb 	bne	c1ac <.text+0x418c>
    be7c:	e3160001 	tst	r6, #1	; 0x1
    be80:	0a0000c9 	beq	c1ac <.text+0x418c>
    be84:	e59d0024 	ldr	r0, [sp, #36]
    be88:	e58d004c 	str	r0, [sp, #76]
    be8c:	e1a02007 	mov	r2, r7
    be90:	e59d3040 	ldr	r3, [sp, #64]
    be94:	e0671003 	rsb	r1, r7, r3
    be98:	e5723001 	ldrb	r3, [r2, #-1]!
    be9c:	e3530039 	cmp	r3, #57	; 0x39
    bea0:	1a000008 	bne	bec8 <.text+0x3ea8>
    bea4:	e59dc040 	ldr	ip, [sp, #64]
    bea8:	e15c0002 	cmp	ip, r2
    beac:	1afffff7 	bne	be90 <.text+0x3e70>
    beb0:	e3a03030 	mov	r3, #48	; 0x30
    beb4:	e5cc3000 	strb	r3, [ip]
    beb8:	e59de04c 	ldr	lr, [sp, #76]
    bebc:	e28ee001 	add	lr, lr, #1	; 0x1
    bec0:	e7d13007 	ldrb	r3, [r1, r7]
    bec4:	e58de04c 	str	lr, [sp, #76]
    bec8:	e2833001 	add	r3, r3, #1	; 0x1
    becc:	e4c23001 	strb	r3, [r2], #1
    bed0:	e59dc04c 	ldr	ip, [sp, #76]
    bed4:	e1a07002 	mov	r7, r2
    bed8:	e58dc024 	str	ip, [sp, #36]
    bedc:	ea0000b2 	b	c1ac <.text+0x418c>
    bee0:	e59de02c 	ldr	lr, [sp, #44]
    bee4:	e35e0000 	cmp	lr, #0	; 0x0
    bee8:	1a0000bf 	bne	c1ec <.text+0x41cc>
    beec:	e59d7014 	ldr	r7, [sp, #20]
    bef0:	e59d5018 	ldr	r5, [sp, #24]
    bef4:	e1a0a00e 	mov	sl, lr
    bef8:	e3570000 	cmp	r7, #0	; 0x0
    befc:	c35b0000 	cmpgt	fp, #0	; 0x0
    bf00:	da000007 	ble	bf24 <.text+0x3f04>
    bf04:	e59de014 	ldr	lr, [sp, #20]
    bf08:	e157000b 	cmp	r7, fp
    bf0c:	b1a03007 	movlt	r3, r7
    bf10:	a1a0300b 	movge	r3, fp
    bf14:	e063e00e 	rsb	lr, r3, lr
    bf18:	e58de014 	str	lr, [sp, #20]
    bf1c:	e063b00b 	rsb	fp, r3, fp
    bf20:	e0637007 	rsb	r7, r3, r7
    bf24:	e59d0018 	ldr	r0, [sp, #24]
    bf28:	e3500000 	cmp	r0, #0	; 0x0
    bf2c:	da000015 	ble	bf88 <.text+0x3f68>
    bf30:	e59d102c 	ldr	r1, [sp, #44]
    bf34:	e3510000 	cmp	r1, #0	; 0x0
    bf38:	0a00027a 	beq	c928 <.text+0x4908>
    bf3c:	e3550000 	cmp	r5, #0	; 0x0
    bf40:	da00000d 	ble	bf7c <.text+0x3f5c>
    bf44:	e1a0100a 	mov	r1, sl
    bf48:	e1a02005 	mov	r2, r5
    bf4c:	e59d0008 	ldr	r0, [sp, #8]
    bf50:	eb000b4d 	bl	ec8c <_pow5mult>
    bf54:	e1a0a000 	mov	sl, r0
    bf58:	e1a0100a 	mov	r1, sl
    bf5c:	e59d2038 	ldr	r2, [sp, #56]
    bf60:	e59d0008 	ldr	r0, [sp, #8]
    bf64:	eb000a9e 	bl	e9e4 <_multiply>
    bf68:	e59d1038 	ldr	r1, [sp, #56]
    bf6c:	e1a04000 	mov	r4, r0
    bf70:	e59d0008 	ldr	r0, [sp, #8]
    bf74:	eb0008cb 	bl	e2a8 <_Bfree>
    bf78:	e58d4038 	str	r4, [sp, #56]
    bf7c:	e59d3018 	ldr	r3, [sp, #24]
    bf80:	e0532005 	subs	r2, r3, r5
    bf84:	1a00026f 	bne	c948 <.text+0x4928>
    bf88:	e59d0008 	ldr	r0, [sp, #8]
    bf8c:	e3a01001 	mov	r1, #1	; 0x1
    bf90:	eb000b03 	bl	eba4 <_i2b>
    bf94:	e59dc030 	ldr	ip, [sp, #48]
    bf98:	e35c0000 	cmp	ip, #0	; 0x0
    bf9c:	e1a06000 	mov	r6, r0
    bfa0:	da000004 	ble	bfb8 <.text+0x3f98>
    bfa4:	e1a01000 	mov	r1, r0
    bfa8:	e1a0200c 	mov	r2, ip
    bfac:	e59d0008 	ldr	r0, [sp, #8]
    bfb0:	eb000b35 	bl	ec8c <_pow5mult>
    bfb4:	e1a06000 	mov	r6, r0
    bfb8:	e59de004 	ldr	lr, [sp, #4]
    bfbc:	e35e0001 	cmp	lr, #1	; 0x1
    bfc0:	da0000f9 	ble	c3ac <.text+0x438c>
    bfc4:	e3a04000 	mov	r4, #0	; 0x0
    bfc8:	e59d1030 	ldr	r1, [sp, #48]
    bfcc:	e3510000 	cmp	r1, #0	; 0x0
    bfd0:	03a03001 	moveq	r3, #1	; 0x1
    bfd4:	1a000231 	bne	c8a0 <.text+0x4880>
    bfd8:	e08b3003 	add	r3, fp, r3
    bfdc:	e213301f 	ands	r3, r3, #31	; 0x1f
    bfe0:	03a0301c 	moveq	r3, #28	; 0x1c
    bfe4:	0a000119 	beq	c450 <.text+0x4430>
    bfe8:	e2633020 	rsb	r3, r3, #32	; 0x20
    bfec:	e3530004 	cmp	r3, #4	; 0x4
    bff0:	da000113 	ble	c444 <.text+0x4424>
    bff4:	e59d2014 	ldr	r2, [sp, #20]
    bff8:	e2433004 	sub	r3, r3, #4	; 0x4
    bffc:	e0822003 	add	r2, r2, r3
    c000:	e58d2014 	str	r2, [sp, #20]
    c004:	e08bb003 	add	fp, fp, r3
    c008:	e0877003 	add	r7, r7, r3
    c00c:	e59de014 	ldr	lr, [sp, #20]
    c010:	e35e0000 	cmp	lr, #0	; 0x0
    c014:	da000004 	ble	c02c <.text+0x400c>
    c018:	e59d1038 	ldr	r1, [sp, #56]
    c01c:	e1a0200e 	mov	r2, lr
    c020:	e59d0008 	ldr	r0, [sp, #8]
    c024:	eb000a2f 	bl	e8e8 <_lshift>
    c028:	e58d0038 	str	r0, [sp, #56]
    c02c:	e35b0000 	cmp	fp, #0	; 0x0
    c030:	da000004 	ble	c048 <.text+0x4028>
    c034:	e1a01006 	mov	r1, r6
    c038:	e1a0200b 	mov	r2, fp
    c03c:	e59d0008 	ldr	r0, [sp, #8]
    c040:	eb000a28 	bl	e8e8 <_lshift>
    c044:	e1a06000 	mov	r6, r0
    c048:	e59d0028 	ldr	r0, [sp, #40]
    c04c:	e3500000 	cmp	r0, #0	; 0x0
    c050:	1a000218 	bne	c8b8 <.text+0x4898>
    c054:	e59de01c 	ldr	lr, [sp, #28]
    c058:	e59d0004 	ldr	r0, [sp, #4]
    c05c:	e35e0000 	cmp	lr, #0	; 0x0
    c060:	c3a03000 	movgt	r3, #0	; 0x0
    c064:	d3a03001 	movle	r3, #1	; 0x1
    c068:	e3500002 	cmp	r0, #2	; 0x2
    c06c:	d3a03000 	movle	r3, #0	; 0x0
    c070:	e3530000 	cmp	r3, #0	; 0x0
    c074:	0a0000fb 	beq	c468 <.text+0x4448>
    c078:	e35e0000 	cmp	lr, #0	; 0x0
    c07c:	ba000037 	blt	c160 <.text+0x4140>
    c080:	e1a01006 	mov	r1, r6
    c084:	e3a02005 	mov	r2, #5	; 0x5
    c088:	e3a03000 	mov	r3, #0	; 0x0
    c08c:	e59d0008 	ldr	r0, [sp, #8]
    c090:	eb000acb 	bl	ebc4 <_multadd>
    c094:	e1a06000 	mov	r6, r0
    c098:	e1a01006 	mov	r1, r6
    c09c:	e59d0038 	ldr	r0, [sp, #56]
    c0a0:	eb0008c2 	bl	e3b0 <__mcmp>
    c0a4:	e3500000 	cmp	r0, #0	; 0x0
    c0a8:	da00002c 	ble	c160 <.text+0x4140>
    c0ac:	e59d7040 	ldr	r7, [sp, #64]
    c0b0:	e3a03031 	mov	r3, #49	; 0x31
    c0b4:	e4c73001 	strb	r3, [r7], #1
    c0b8:	e59d3024 	ldr	r3, [sp, #36]
    c0bc:	e3a0c000 	mov	ip, #0	; 0x0
    c0c0:	e2833001 	add	r3, r3, #1	; 0x1
    c0c4:	e1a0b00a 	mov	fp, sl
    c0c8:	e58d3024 	str	r3, [sp, #36]
    c0cc:	e58dc03c 	str	ip, [sp, #60]
    c0d0:	ea000029 	b	c17c <.text+0x415c>
    c0d4:	e51f158c 	ldr	r1, [pc, #-1420]	; bb50 <.text+0x3b30>
    c0d8:	e2812020 	add	r2, r1, #32	; 0x20
    c0dc:	e892000c 	ldmia	r2, {r2, r3}
    c0e0:	e28d000c 	add	r0, sp, #12	; 0xc
    c0e4:	e8900003 	ldmia	r0, {r0, r1}
    c0e8:	eb0010aa 	bl	10398 <__aeabi_ddiv>
    c0ec:	e204400f 	and	r4, r4, #15	; 0xf
    c0f0:	e1a08000 	mov	r8, r0
    c0f4:	e1a09001 	mov	r9, r1
    c0f8:	e3a0a003 	mov	sl, #3	; 0x3
    c0fc:	eafffe3f 	b	ba00 <.text+0x39e0>
    c100:	e3a02101 	mov	r2, #1073741824	; 0x40000000
    c104:	e1a00008 	mov	r0, r8
    c108:	e1a01009 	mov	r1, r9
    c10c:	e2822705 	add	r2, r2, #1310720	; 0x140000
    c110:	e3a03000 	mov	r3, #0	; 0x0
    c114:	eb000f06 	bl	fd34 <__aeabi_dsub>
    c118:	e1a02006 	mov	r2, r6
    c11c:	e1a03007 	mov	r3, r7
    c120:	e1a08000 	mov	r8, r0
    c124:	e1a09001 	mov	r9, r1
    c128:	eb00111b 	bl	1059c <__gedf2>
    c12c:	e3500000 	cmp	r0, #0	; 0x0
    c130:	e1a04006 	mov	r4, r6
    c134:	e1a05007 	mov	r5, r7
    c138:	ca000059 	bgt	c2a4 <.text+0x4284>
    c13c:	e2862102 	add	r2, r6, #-2147483648	; 0x80000000
    c140:	e1a03007 	mov	r3, r7
    c144:	e1a00008 	mov	r0, r8
    c148:	e1a01009 	mov	r1, r9
    c14c:	eb001114 	bl	105a4 <__ledf2>
    c150:	e3500000 	cmp	r0, #0	; 0x0
    c154:	aafffef9 	bge	bd40 <.text+0x3d20>
    c158:	e3a06000 	mov	r6, #0	; 0x0
    c15c:	e1a0a006 	mov	sl, r6
    c160:	e59d107c 	ldr	r1, [sp, #124]
    c164:	e3a02000 	mov	r2, #0	; 0x0
    c168:	e1e01001 	mvn	r1, r1
    c16c:	e58d1024 	str	r1, [sp, #36]
    c170:	e59d7040 	ldr	r7, [sp, #64]
    c174:	e58d203c 	str	r2, [sp, #60]
    c178:	e1a0b00a 	mov	fp, sl
    c17c:	e1a01006 	mov	r1, r6
    c180:	e59d0008 	ldr	r0, [sp, #8]
    c184:	eb000847 	bl	e2a8 <_Bfree>
    c188:	e35b0000 	cmp	fp, #0	; 0x0
    c18c:	0a000006 	beq	c1ac <.text+0x418c>
    c190:	e59d203c 	ldr	r2, [sp, #60]
    c194:	e3520000 	cmp	r2, #0	; 0x0
    c198:	1152000b 	cmpne	r2, fp
    c19c:	1a000142 	bne	c6ac <.text+0x468c>
    c1a0:	e1a0100b 	mov	r1, fp
    c1a4:	e59d0008 	ldr	r0, [sp, #8]
    c1a8:	eb00083e 	bl	e2a8 <_Bfree>
    c1ac:	e59d1038 	ldr	r1, [sp, #56]
    c1b0:	e59d0008 	ldr	r0, [sp, #8]
    c1b4:	eb00083b 	bl	e2a8 <_Bfree>
    c1b8:	e3a03000 	mov	r3, #0	; 0x0
    c1bc:	e59dc024 	ldr	ip, [sp, #36]
    c1c0:	e59de088 	ldr	lr, [sp, #136]
    c1c4:	e5c73000 	strb	r3, [r7]
    c1c8:	e59d0080 	ldr	r0, [sp, #128]
    c1cc:	e35e0000 	cmp	lr, #0	; 0x0
    c1d0:	e28c2001 	add	r2, ip, #1	; 0x1
    c1d4:	e5802000 	str	r2, [r0]
    c1d8:	159d1088 	ldrne	r1, [sp, #136]
    c1dc:	059d0040 	ldreq	r0, [sp, #64]
    c1e0:	159d0040 	ldrne	r0, [sp, #64]
    c1e4:	15817000 	strne	r7, [r1]
    c1e8:	eafffd43 	b	b6fc <_dtoa_r+0xd8>
    c1ec:	e59d0004 	ldr	r0, [sp, #4]
    c1f0:	e3500001 	cmp	r0, #1	; 0x1
    c1f4:	da0001d8 	ble	c95c <.text+0x493c>
    c1f8:	e59d301c 	ldr	r3, [sp, #28]
    c1fc:	e59dc018 	ldr	ip, [sp, #24]
    c200:	e2432001 	sub	r2, r3, #1	; 0x1
    c204:	e15c0002 	cmp	ip, r2
    c208:	b59de018 	ldrlt	lr, [sp, #24]
    c20c:	b59d0030 	ldrlt	r0, [sp, #48]
    c210:	b06e3002 	rsblt	r3, lr, r2
    c214:	e59d101c 	ldr	r1, [sp, #28]
    c218:	b08ee003 	addlt	lr, lr, r3
    c21c:	b0800003 	addlt	r0, r0, r3
    c220:	a062500c 	rsbge	r5, r2, ip
    c224:	b58de018 	strlt	lr, [sp, #24]
    c228:	b58d0030 	strlt	r0, [sp, #48]
    c22c:	b3a05000 	movlt	r5, #0	; 0x0
    c230:	e3510000 	cmp	r1, #0	; 0x0
    c234:	b59d301c 	ldrlt	r3, [sp, #28]
    c238:	b59d2014 	ldrlt	r2, [sp, #20]
    c23c:	a59d7014 	ldrge	r7, [sp, #20]
    c240:	b0637002 	rsblt	r7, r3, r2
    c244:	a1a03001 	movge	r3, r1
    c248:	b3a03000 	movlt	r3, #0	; 0x0
    c24c:	e59dc014 	ldr	ip, [sp, #20]
    c250:	e59d0008 	ldr	r0, [sp, #8]
    c254:	e08cc003 	add	ip, ip, r3
    c258:	e3a01001 	mov	r1, #1	; 0x1
    c25c:	e08bb003 	add	fp, fp, r3
    c260:	e58dc014 	str	ip, [sp, #20]
    c264:	eb000a4e 	bl	eba4 <_i2b>
    c268:	e1a0a000 	mov	sl, r0
    c26c:	eaffff21 	b	bef8 <.text+0x3ed8>
    c270:	e3500000 	cmp	r0, #0	; 0x0
    c274:	baffffb7 	blt	c158 <.text+0x4138>
    c278:	e3a02101 	mov	r2, #1073741824	; 0x40000000
    c27c:	e2822705 	add	r2, r2, #1310720	; 0x140000
    c280:	e3a03000 	mov	r3, #0	; 0x0
    c284:	e1a0000a 	mov	r0, sl
    c288:	e1a0100b 	mov	r1, fp
    c28c:	eb000fa6 	bl	1012c <__aeabi_dmul>
    c290:	e1a02008 	mov	r2, r8
    c294:	e1a03009 	mov	r3, r9
    c298:	eb0010bf 	bl	1059c <__gedf2>
    c29c:	e3500000 	cmp	r0, #0	; 0x0
    c2a0:	aaffffac 	bge	c158 <.text+0x4138>
    c2a4:	e3a06000 	mov	r6, #0	; 0x0
    c2a8:	e1a0a006 	mov	sl, r6
    c2ac:	eaffff7e 	b	c0ac <.text+0x408c>
    c2b0:	e3e02000 	mvn	r2, #0	; 0x0
    c2b4:	e3a03001 	mov	r3, #1	; 0x1
    c2b8:	e58d2020 	str	r2, [sp, #32]
    c2bc:	e58d201c 	str	r2, [sp, #28]
    c2c0:	e58d302c 	str	r3, [sp, #44]
    c2c4:	e59dc008 	ldr	ip, [sp, #8]
    c2c8:	e3560017 	cmp	r6, #23	; 0x17
    c2cc:	e3a03000 	mov	r3, #0	; 0x0
    c2d0:	e58c3044 	str	r3, [ip, #68]
    c2d4:	81a01003 	movhi	r1, r3
    c2d8:	83a02004 	movhi	r2, #4	; 0x4
    c2dc:	9a0001df 	bls	ca60 <.text+0x4a40>
    c2e0:	e1a02082 	mov	r2, r2, lsl #1
    c2e4:	e2823014 	add	r3, r2, #20	; 0x14
    c2e8:	e1560003 	cmp	r6, r3
    c2ec:	e2811001 	add	r1, r1, #1	; 0x1
    c2f0:	2afffffa 	bcs	c2e0 <.text+0x42c0>
    c2f4:	e59d301c 	ldr	r3, [sp, #28]
    c2f8:	e59d2008 	ldr	r2, [sp, #8]
    c2fc:	e353000e 	cmp	r3, #14	; 0xe
    c300:	83a04000 	movhi	r4, #0	; 0x0
    c304:	93a04001 	movls	r4, #1	; 0x1
    c308:	e1a05000 	mov	r5, r0
    c30c:	e5821044 	str	r1, [r2, #68]
    c310:	eafffda7 	b	b9b4 <.text+0x3994>
    c314:	e3a03000 	mov	r3, #0	; 0x0
    c318:	e58d302c 	str	r3, [sp, #44]
    c31c:	e59dc07c 	ldr	ip, [sp, #124]
    c320:	e59de024 	ldr	lr, [sp, #36]
    c324:	e28c3001 	add	r3, ip, #1	; 0x1
    c328:	e08e6003 	add	r6, lr, r3
    c32c:	e3560000 	cmp	r6, #0	; 0x0
    c330:	e2461001 	sub	r1, r6, #1	; 0x1
    c334:	e58d1020 	str	r1, [sp, #32]
    c338:	c58d601c 	strgt	r6, [sp, #28]
    c33c:	caffffe0 	bgt	c2c4 <.text+0x42a4>
    c340:	e356000e 	cmp	r6, #14	; 0xe
    c344:	83a04000 	movhi	r4, #0	; 0x0
    c348:	93a04001 	movls	r4, #1	; 0x1
    c34c:	e1a05000 	mov	r5, r0
    c350:	e58d601c 	str	r6, [sp, #28]
    c354:	eafffd93 	b	b9a8 <.text+0x3988>
    c358:	e3a02001 	mov	r2, #1	; 0x1
    c35c:	e58d202c 	str	r2, [sp, #44]
    c360:	e59d207c 	ldr	r2, [sp, #124]
    c364:	e3520000 	cmp	r2, #0	; 0x0
    c368:	c58d2020 	strgt	r2, [sp, #32]
    c36c:	c1a06002 	movgt	r6, r2
    c370:	c58d201c 	strgt	r2, [sp, #28]
    c374:	caffffd2 	bgt	c2c4 <.text+0x42a4>
    c378:	e3a02001 	mov	r2, #1	; 0x1
    c37c:	e1a04002 	mov	r4, r2
    c380:	e1a05000 	mov	r5, r0
    c384:	e58d201c 	str	r2, [sp, #28]
    c388:	e58d207c 	str	r2, [sp, #124]
    c38c:	e58d2020 	str	r2, [sp, #32]
    c390:	eafffd84 	b	b9a8 <.text+0x3988>
    c394:	e3a01001 	mov	r1, #1	; 0x1
    c398:	e58d102c 	str	r1, [sp, #44]
    c39c:	eaffffde 	b	c31c <.text+0x42fc>
    c3a0:	e3a01000 	mov	r1, #0	; 0x0
    c3a4:	e58d102c 	str	r1, [sp, #44]
    c3a8:	eaffffec 	b	c360 <.text+0x4340>
    c3ac:	e3590000 	cmp	r9, #0	; 0x0
    c3b0:	1affff03 	bne	bfc4 <.text+0x3fa4>
    c3b4:	e3c834ff 	bic	r3, r8, #-16777216	; 0xff000000
    c3b8:	e3c3360f 	bic	r3, r3, #15728640	; 0xf00000
    c3bc:	e3530000 	cmp	r3, #0	; 0x0
    c3c0:	1afffeff 	bne	bfc4 <.text+0x3fa4>
    c3c4:	e3c83102 	bic	r3, r8, #-2147483648	; 0x80000000
    c3c8:	e1a03a23 	mov	r3, r3, lsr #20
    c3cc:	e1a03a03 	mov	r3, r3, lsl #20
    c3d0:	e3530000 	cmp	r3, #0	; 0x0
    c3d4:	0afffefa 	beq	bfc4 <.text+0x3fa4>
    c3d8:	e59d0014 	ldr	r0, [sp, #20]
    c3dc:	e28bb001 	add	fp, fp, #1	; 0x1
    c3e0:	e2800001 	add	r0, r0, #1	; 0x1
    c3e4:	e3a04001 	mov	r4, #1	; 0x1
    c3e8:	e58d0014 	str	r0, [sp, #20]
    c3ec:	eafffef5 	b	bfc8 <.text+0x3fa8>
    c3f0:	e59d0024 	ldr	r0, [sp, #36]
    c3f4:	eb000f11 	bl	10040 <__aeabi_i2d>
    c3f8:	e1a02000 	mov	r2, r0
    c3fc:	e1a03001 	mov	r3, r1
    c400:	e1a00004 	mov	r0, r4
    c404:	e1a01005 	mov	r1, r5
    c408:	eb001067 	bl	105ac <__cmpdf2>
    c40c:	e3500000 	cmp	r0, #0	; 0x0
    c410:	159dc024 	ldrne	ip, [sp, #36]
    c414:	124cc001 	subne	ip, ip, #1	; 0x1
    c418:	158dc024 	strne	ip, [sp, #36]
    c41c:	eafffcf1 	b	b7e8 <_dtoa_r+0x1c4>
    c420:	e59d3014 	ldr	r3, [sp, #20]
    c424:	e59dc024 	ldr	ip, [sp, #36]
    c428:	e3a00000 	mov	r0, #0	; 0x0
    c42c:	e06c3003 	rsb	r3, ip, r3
    c430:	e26ce000 	rsb	lr, ip, #0	; 0x0
    c434:	e58d3014 	str	r3, [sp, #20]
    c438:	e58de018 	str	lr, [sp, #24]
    c43c:	e58d0030 	str	r0, [sp, #48]
    c440:	eafffd0b 	b	b874 <_dtoa_r+0x250>
    c444:	e3530003 	cmp	r3, #3	; 0x3
    c448:	cafffeef 	bgt	c00c <.text+0x3fec>
    c44c:	e283301c 	add	r3, r3, #28	; 0x1c
    c450:	e59dc014 	ldr	ip, [sp, #20]
    c454:	e08bb003 	add	fp, fp, r3
    c458:	e08cc003 	add	ip, ip, r3
    c45c:	e0877003 	add	r7, r7, r3
    c460:	e58dc014 	str	ip, [sp, #20]
    c464:	eafffee8 	b	c00c <.text+0x3fec>
    c468:	e59de02c 	ldr	lr, [sp, #44]
    c46c:	e35e0000 	cmp	lr, #0	; 0x0
    c470:	03a04000 	moveq	r4, #0	; 0x0
    c474:	0a00004c 	beq	c5ac <.text+0x458c>
    c478:	e3570000 	cmp	r7, #0	; 0x0
    c47c:	da000004 	ble	c494 <.text+0x4474>
    c480:	e1a0100a 	mov	r1, sl
    c484:	e1a02007 	mov	r2, r7
    c488:	e59d0008 	ldr	r0, [sp, #8]
    c48c:	eb000915 	bl	e8e8 <_lshift>
    c490:	e1a0a000 	mov	sl, r0
    c494:	e3540000 	cmp	r4, #0	; 0x0
    c498:	01a0b00a 	moveq	fp, sl
    c49c:	1a00014e 	bne	c9dc <.text+0x49bc>
    c4a0:	e58da03c 	str	sl, [sp, #60]
    c4a4:	e59d5040 	ldr	r5, [sp, #64]
    c4a8:	e2097001 	and	r7, r9, #1	; 0x1
    c4ac:	e1a01006 	mov	r1, r6
    c4b0:	e59d0038 	ldr	r0, [sp, #56]
    c4b4:	ebfffbd9 	bl	b420 <quorem>
    c4b8:	e59d103c 	ldr	r1, [sp, #60]
    c4bc:	e2809030 	add	r9, r0, #48	; 0x30
    c4c0:	e59d0038 	ldr	r0, [sp, #56]
    c4c4:	eb0007b9 	bl	e3b0 <__mcmp>
    c4c8:	e1a01006 	mov	r1, r6
    c4cc:	e1a08000 	mov	r8, r0
    c4d0:	e1a0200b 	mov	r2, fp
    c4d4:	e59d0008 	ldr	r0, [sp, #8]
    c4d8:	eb0008b5 	bl	e7b4 <__mdiff>
    c4dc:	e590300c 	ldr	r3, [r0, #12]
    c4e0:	e3530000 	cmp	r3, #0	; 0x0
    c4e4:	e1a04000 	mov	r4, r0
    c4e8:	13a0a001 	movne	sl, #1	; 0x1
    c4ec:	0a000061 	beq	c678 <.text+0x4658>
    c4f0:	e1a01004 	mov	r1, r4
    c4f4:	e59d0008 	ldr	r0, [sp, #8]
    c4f8:	eb00076a 	bl	e2a8 <_Bfree>
    c4fc:	e59d2004 	ldr	r2, [sp, #4]
    c500:	e19a2002 	orrs	r2, sl, r2
    c504:	1a000001 	bne	c510 <.text+0x44f0>
    c508:	e3570000 	cmp	r7, #0	; 0x0
    c50c:	0a00014a 	beq	ca3c <.text+0x4a1c>
    c510:	e3580000 	cmp	r8, #0	; 0x0
    c514:	ba00011f 	blt	c998 <.text+0x4978>
    c518:	e59d3004 	ldr	r3, [sp, #4]
    c51c:	e1983003 	orrs	r3, r8, r3
    c520:	1a000001 	bne	c52c <.text+0x450c>
    c524:	e3570000 	cmp	r7, #0	; 0x0
    c528:	0a00011a 	beq	c998 <.text+0x4978>
    c52c:	e35a0000 	cmp	sl, #0	; 0x0
    c530:	ca000139 	bgt	ca1c <.text+0x49fc>
    c534:	e4c59001 	strb	r9, [r5], #1
    c538:	e59dc040 	ldr	ip, [sp, #64]
    c53c:	e59de01c 	ldr	lr, [sp, #28]
    c540:	e08c300e 	add	r3, ip, lr
    c544:	e1550003 	cmp	r5, r3
    c548:	0a00002a 	beq	c5f8 <.text+0x45d8>
    c54c:	e59d1038 	ldr	r1, [sp, #56]
    c550:	e59d0008 	ldr	r0, [sp, #8]
    c554:	e3a0200a 	mov	r2, #10	; 0xa
    c558:	e3a03000 	mov	r3, #0	; 0x0
    c55c:	eb000998 	bl	ebc4 <_multadd>
    c560:	e58d0038 	str	r0, [sp, #56]
    c564:	e59d003c 	ldr	r0, [sp, #60]
    c568:	e150000b 	cmp	r0, fp
    c56c:	0a000046 	beq	c68c <.text+0x466c>
    c570:	e59d103c 	ldr	r1, [sp, #60]
    c574:	e3a0200a 	mov	r2, #10	; 0xa
    c578:	e3a03000 	mov	r3, #0	; 0x0
    c57c:	e59d0008 	ldr	r0, [sp, #8]
    c580:	eb00098f 	bl	ebc4 <_multadd>
    c584:	e1a0100b 	mov	r1, fp
    c588:	e58d003c 	str	r0, [sp, #60]
    c58c:	e3a0200a 	mov	r2, #10	; 0xa
    c590:	e59d0008 	ldr	r0, [sp, #8]
    c594:	e3a03000 	mov	r3, #0	; 0x0
    c598:	eb000989 	bl	ebc4 <_multadd>
    c59c:	e1a0b000 	mov	fp, r0
    c5a0:	eaffffc1 	b	c4ac <.text+0x448c>
    c5a4:	eb000986 	bl	ebc4 <_multadd>
    c5a8:	e58d0038 	str	r0, [sp, #56]
    c5ac:	e1a01006 	mov	r1, r6
    c5b0:	e59d0038 	ldr	r0, [sp, #56]
    c5b4:	ebfffb99 	bl	b420 <quorem>
    c5b8:	e59dc040 	ldr	ip, [sp, #64]
    c5bc:	e2809030 	add	r9, r0, #48	; 0x30
    c5c0:	e59d1038 	ldr	r1, [sp, #56]
    c5c4:	e59d0008 	ldr	r0, [sp, #8]
    c5c8:	e7c4900c 	strb	r9, [r4, ip]
    c5cc:	e59de01c 	ldr	lr, [sp, #28]
    c5d0:	e2844001 	add	r4, r4, #1	; 0x1
    c5d4:	e15e0004 	cmp	lr, r4
    c5d8:	e3a0200a 	mov	r2, #10	; 0xa
    c5dc:	e3a03000 	mov	r3, #0	; 0x0
    c5e0:	caffffef 	bgt	c5a4 <.text+0x4584>
    c5e4:	e59d0040 	ldr	r0, [sp, #64]
    c5e8:	e3a01000 	mov	r1, #0	; 0x0
    c5ec:	e58d103c 	str	r1, [sp, #60]
    c5f0:	e0805004 	add	r5, r0, r4
    c5f4:	e1a0b00a 	mov	fp, sl
    c5f8:	e59d1038 	ldr	r1, [sp, #56]
    c5fc:	e3a02001 	mov	r2, #1	; 0x1
    c600:	e59d0008 	ldr	r0, [sp, #8]
    c604:	eb0008b7 	bl	e8e8 <_lshift>
    c608:	e1a01006 	mov	r1, r6
    c60c:	e58d0038 	str	r0, [sp, #56]
    c610:	eb000766 	bl	e3b0 <__mcmp>
    c614:	e3500000 	cmp	r0, #0	; 0x0
    c618:	da00000d 	ble	c654 <.text+0x4634>
    c61c:	e1a02005 	mov	r2, r5
    c620:	e5723001 	ldrb	r3, [r2, #-1]!
    c624:	e3530039 	cmp	r3, #57	; 0x39
    c628:	1a0000d6 	bne	c988 <.text+0x4968>
    c62c:	e59d0040 	ldr	r0, [sp, #64]
    c630:	e1500002 	cmp	r0, r2
    c634:	1afffff9 	bne	c620 <.text+0x4600>
    c638:	e1a07000 	mov	r7, r0
    c63c:	e3a03031 	mov	r3, #49	; 0x31
    c640:	e4c73001 	strb	r3, [r7], #1
    c644:	e59d1024 	ldr	r1, [sp, #36]
    c648:	e2811001 	add	r1, r1, #1	; 0x1
    c64c:	e58d1024 	str	r1, [sp, #36]
    c650:	eafffec9 	b	c17c <.text+0x415c>
    c654:	1a000001 	bne	c660 <.text+0x4640>
    c658:	e3190001 	tst	r9, #1	; 0x1
    c65c:	1affffee 	bne	c61c <.text+0x45fc>
    c660:	e1a02005 	mov	r2, r5
    c664:	e5723001 	ldrb	r3, [r2, #-1]!
    c668:	e3530030 	cmp	r3, #48	; 0x30
    c66c:	0afffffc 	beq	c664 <.text+0x4644>
    c670:	e2827001 	add	r7, r2, #1	; 0x1
    c674:	eafffec0 	b	c17c <.text+0x415c>
    c678:	e59d0038 	ldr	r0, [sp, #56]
    c67c:	e1a01004 	mov	r1, r4
    c680:	eb00074a 	bl	e3b0 <__mcmp>
    c684:	e1a0a000 	mov	sl, r0
    c688:	eaffff98 	b	c4f0 <.text+0x44d0>
    c68c:	e1a0100b 	mov	r1, fp
    c690:	e59d0008 	ldr	r0, [sp, #8]
    c694:	e3a0200a 	mov	r2, #10	; 0xa
    c698:	e3a03000 	mov	r3, #0	; 0x0
    c69c:	eb000948 	bl	ebc4 <_multadd>
    c6a0:	e1a0b000 	mov	fp, r0
    c6a4:	e58d003c 	str	r0, [sp, #60]
    c6a8:	eaffff7f 	b	c4ac <.text+0x448c>
    c6ac:	e1a01002 	mov	r1, r2
    c6b0:	e59d0008 	ldr	r0, [sp, #8]
    c6b4:	eb0006fb 	bl	e2a8 <_Bfree>
    c6b8:	eafffeb8 	b	c1a0 <.text+0x4180>
    c6bc:	e51fcb78 	ldr	ip, [pc, #-2936]	; bb4c <.text+0x3b2c>
    c6c0:	e08cc18a 	add	ip, ip, sl, lsl #3
    c6c4:	e91c000c 	ldmdb	ip, {r2, r3}
    c6c8:	e1a00006 	mov	r0, r6
    c6cc:	e1a01007 	mov	r1, r7
    c6d0:	eb000e95 	bl	1012c <__aeabi_dmul>
    c6d4:	e58d0044 	str	r0, [sp, #68]
    c6d8:	e58d1048 	str	r1, [sp, #72]
    c6dc:	e1a00008 	mov	r0, r8
    c6e0:	e1a01009 	mov	r1, r9
    c6e4:	eb000ff6 	bl	106c4 <__aeabi_d2iz>
    c6e8:	e1a04000 	mov	r4, r0
    c6ec:	eb000e53 	bl	10040 <__aeabi_i2d>
    c6f0:	e1a02000 	mov	r2, r0
    c6f4:	e1a03001 	mov	r3, r1
    c6f8:	e1a00008 	mov	r0, r8
    c6fc:	e1a01009 	mov	r1, r9
    c700:	eb000d8b 	bl	fd34 <__aeabi_dsub>
    c704:	e59d7040 	ldr	r7, [sp, #64]
    c708:	e2844030 	add	r4, r4, #48	; 0x30
    c70c:	e35a0001 	cmp	sl, #1	; 0x1
    c710:	e1a05000 	mov	r5, r0
    c714:	e1a06001 	mov	r6, r1
    c718:	e4c74001 	strb	r4, [r7], #1
    c71c:	13a08001 	movne	r8, #1	; 0x1
    c720:	0a000019 	beq	c78c <.text+0x476c>
    c724:	e3a02101 	mov	r2, #1073741824	; 0x40000000
    c728:	e2822709 	add	r2, r2, #2359296	; 0x240000
    c72c:	e3a03000 	mov	r3, #0	; 0x0
    c730:	e1a00005 	mov	r0, r5
    c734:	e1a01006 	mov	r1, r6
    c738:	eb000e7b 	bl	1012c <__aeabi_dmul>
    c73c:	e1a06001 	mov	r6, r1
    c740:	e1a05000 	mov	r5, r0
    c744:	eb000fde 	bl	106c4 <__aeabi_d2iz>
    c748:	e1a04000 	mov	r4, r0
    c74c:	eb000e3b 	bl	10040 <__aeabi_i2d>
    c750:	e1a02000 	mov	r2, r0
    c754:	e1a03001 	mov	r3, r1
    c758:	e1a00005 	mov	r0, r5
    c75c:	e1a01006 	mov	r1, r6
    c760:	eb000d73 	bl	fd34 <__aeabi_dsub>
    c764:	e59dc040 	ldr	ip, [sp, #64]
    c768:	e2844030 	add	r4, r4, #48	; 0x30
    c76c:	e7c8400c 	strb	r4, [r8, ip]
    c770:	e2888001 	add	r8, r8, #1	; 0x1
    c774:	e158000a 	cmp	r8, sl
    c778:	e1a05000 	mov	r5, r0
    c77c:	e1a06001 	mov	r6, r1
    c780:	1affffe7 	bne	c724 <.text+0x4704>
    c784:	e0873008 	add	r3, r7, r8
    c788:	e2437001 	sub	r7, r3, #1	; 0x1
    c78c:	e3a025ff 	mov	r2, #1069547520	; 0x3fc00000
    c790:	e2822602 	add	r2, r2, #2097152	; 0x200000
    c794:	e3a03000 	mov	r3, #0	; 0x0
    c798:	e28d0044 	add	r0, sp, #68	; 0x44
    c79c:	e8900003 	ldmia	r0, {r0, r1}
    c7a0:	eb000d64 	bl	fd38 <__adddf3>
    c7a4:	e1a02005 	mov	r2, r5
    c7a8:	e1a03006 	mov	r3, r6
    c7ac:	eb000f7c 	bl	105a4 <__ledf2>
    c7b0:	e3500000 	cmp	r0, #0	; 0x0
    c7b4:	bafffdb4 	blt	be8c <.text+0x3e6c>
    c7b8:	e3a005ff 	mov	r0, #1069547520	; 0x3fc00000
    c7bc:	e28d2044 	add	r2, sp, #68	; 0x44
    c7c0:	e892000c 	ldmia	r2, {r2, r3}
    c7c4:	e2800602 	add	r0, r0, #2097152	; 0x200000
    c7c8:	e3a01000 	mov	r1, #0	; 0x0
    c7cc:	eb000d58 	bl	fd34 <__aeabi_dsub>
    c7d0:	e1a02005 	mov	r2, r5
    c7d4:	e1a03006 	mov	r3, r6
    c7d8:	eb000f6f 	bl	1059c <__gedf2>
    c7dc:	e3500000 	cmp	r0, #0	; 0x0
    c7e0:	dafffd56 	ble	bd40 <.text+0x3d20>
    c7e4:	e1a02007 	mov	r2, r7
    c7e8:	e5723001 	ldrb	r3, [r2, #-1]!
    c7ec:	e3530030 	cmp	r3, #48	; 0x30
    c7f0:	0afffffc 	beq	c7e8 <.text+0x47c8>
    c7f4:	e59d304c 	ldr	r3, [sp, #76]
    c7f8:	e2827001 	add	r7, r2, #1	; 0x1
    c7fc:	e58d3024 	str	r3, [sp, #36]
    c800:	eafffe69 	b	c1ac <.text+0x418c>
    c804:	e59d0024 	ldr	r0, [sp, #36]
    c808:	e2605000 	rsb	r5, r0, #0	; 0x0
    c80c:	e3550000 	cmp	r5, #0	; 0x0
    c810:	0a00004a 	beq	c940 <.text+0x4920>
    c814:	e51f1cd0 	ldr	r1, [pc, #-3280]	; bb4c <.text+0x3b2c>
    c818:	e205300f 	and	r3, r5, #15	; 0xf
    c81c:	e0811183 	add	r1, r1, r3, lsl #3
    c820:	e891000c 	ldmia	r1, {r2, r3}
    c824:	e28d000c 	add	r0, sp, #12	; 0xc
    c828:	e8900003 	ldmia	r0, {r0, r1}
    c82c:	eb000e3e 	bl	1012c <__aeabi_dmul>
    c830:	e1b05245 	movs	r5, r5, asr #4
    c834:	e1a03000 	mov	r3, r0
    c838:	e1a04001 	mov	r4, r1
    c83c:	e1a08000 	mov	r8, r0
    c840:	e1a09001 	mov	r9, r1
    c844:	0a00003d 	beq	c940 <.text+0x4920>
    c848:	e51f6d00 	ldr	r6, [pc, #-3328]	; bb50 <.text+0x3b30>
    c84c:	e3a0a002 	mov	sl, #2	; 0x2
    c850:	e3150001 	tst	r5, #1	; 0x1
    c854:	e1a00003 	mov	r0, r3
    c858:	e1a01004 	mov	r1, r4
    c85c:	0a000004 	beq	c874 <.text+0x4854>
    c860:	e896000c 	ldmia	r6, {r2, r3}
    c864:	eb000e30 	bl	1012c <__aeabi_dmul>
    c868:	e28aa001 	add	sl, sl, #1	; 0x1
    c86c:	e1a03000 	mov	r3, r0
    c870:	e1a04001 	mov	r4, r1
    c874:	e1b050c5 	movs	r5, r5, asr #1
    c878:	e2866008 	add	r6, r6, #8	; 0x8
    c87c:	1afffff3 	bne	c850 <.text+0x4830>
    c880:	e1a08003 	mov	r8, r3
    c884:	e1a09004 	mov	r9, r4
    c888:	eafffc72 	b	ba58 <.text+0x3a38>
    c88c:	e3a02441 	mov	r2, #1090519040	; 0x41000000
    c890:	e282260f 	add	r2, r2, #15728640	; 0xf00000
    c894:	e3a03000 	mov	r3, #0	; 0x0
    c898:	eb000d26 	bl	fd38 <__adddf3>
    c89c:	eafffc32 	b	b96c <.text+0x394c>
    c8a0:	e5963010 	ldr	r3, [r6, #16]
    c8a4:	e0863103 	add	r3, r6, r3, lsl #2
    c8a8:	e5930010 	ldr	r0, [r3, #16]
    c8ac:	eb000684 	bl	e2c4 <_hi0bits>
    c8b0:	e2603020 	rsb	r3, r0, #32	; 0x20
    c8b4:	eafffdc7 	b	bfd8 <.text+0x3fb8>
    c8b8:	e59d0038 	ldr	r0, [sp, #56]
    c8bc:	e1a01006 	mov	r1, r6
    c8c0:	eb0006ba 	bl	e3b0 <__mcmp>
    c8c4:	e3500000 	cmp	r0, #0	; 0x0
    c8c8:	aafffde1 	bge	c054 <.text+0x4034>
    c8cc:	e3a03000 	mov	r3, #0	; 0x0
    c8d0:	e59d1038 	ldr	r1, [sp, #56]
    c8d4:	e3a0200a 	mov	r2, #10	; 0xa
    c8d8:	e59d0008 	ldr	r0, [sp, #8]
    c8dc:	eb0008b8 	bl	ebc4 <_multadd>
    c8e0:	e59d102c 	ldr	r1, [sp, #44]
    c8e4:	e59d2024 	ldr	r2, [sp, #36]
    c8e8:	e3510000 	cmp	r1, #0	; 0x0
    c8ec:	059d3020 	ldreq	r3, [sp, #32]
    c8f0:	e2422001 	sub	r2, r2, #1	; 0x1
    c8f4:	e58d0038 	str	r0, [sp, #56]
    c8f8:	e58d2024 	str	r2, [sp, #36]
    c8fc:	058d301c 	streq	r3, [sp, #28]
    c900:	0afffdd3 	beq	c054 <.text+0x4034>
    c904:	e1a0100a 	mov	r1, sl
    c908:	e59d0008 	ldr	r0, [sp, #8]
    c90c:	e3a0200a 	mov	r2, #10	; 0xa
    c910:	e3a03000 	mov	r3, #0	; 0x0
    c914:	eb0008aa 	bl	ebc4 <_multadd>
    c918:	e59dc020 	ldr	ip, [sp, #32]
    c91c:	e1a0a000 	mov	sl, r0
    c920:	e58dc01c 	str	ip, [sp, #28]
    c924:	eafffdca 	b	c054 <.text+0x4034>
    c928:	e59d1038 	ldr	r1, [sp, #56]
    c92c:	e59d2018 	ldr	r2, [sp, #24]
    c930:	e59d0008 	ldr	r0, [sp, #8]
    c934:	eb0008d4 	bl	ec8c <_pow5mult>
    c938:	e58d0038 	str	r0, [sp, #56]
    c93c:	eafffd91 	b	bf88 <.text+0x3f68>
    c940:	e3a0a002 	mov	sl, #2	; 0x2
    c944:	eafffc43 	b	ba58 <.text+0x3a38>
    c948:	e59d1038 	ldr	r1, [sp, #56]
    c94c:	e59d0008 	ldr	r0, [sp, #8]
    c950:	eb0008cd 	bl	ec8c <_pow5mult>
    c954:	e58d0038 	str	r0, [sp, #56]
    c958:	eafffd8a 	b	bf88 <.text+0x3f68>
    c95c:	e59d1034 	ldr	r1, [sp, #52]
    c960:	e3510000 	cmp	r1, #0	; 0x0
    c964:	059d3054 	ldreq	r3, [sp, #84]
    c968:	12823e43 	addne	r3, r2, #1072	; 0x430
    c96c:	159d7014 	ldrne	r7, [sp, #20]
    c970:	159d5018 	ldrne	r5, [sp, #24]
    c974:	059d7014 	ldreq	r7, [sp, #20]
    c978:	059d5018 	ldreq	r5, [sp, #24]
    c97c:	12833003 	addne	r3, r3, #3	; 0x3
    c980:	02633036 	rsbeq	r3, r3, #54	; 0x36
    c984:	eafffe30 	b	c24c <.text+0x422c>
    c988:	e2833001 	add	r3, r3, #1	; 0x1
    c98c:	e4c23001 	strb	r3, [r2], #1
    c990:	e1a07002 	mov	r7, r2
    c994:	eafffdf8 	b	c17c <.text+0x415c>
    c998:	e35a0000 	cmp	sl, #0	; 0x0
    c99c:	da00000b 	ble	c9d0 <.text+0x49b0>
    c9a0:	e59d1038 	ldr	r1, [sp, #56]
    c9a4:	e3a02001 	mov	r2, #1	; 0x1
    c9a8:	e59d0008 	ldr	r0, [sp, #8]
    c9ac:	eb0007cd 	bl	e8e8 <_lshift>
    c9b0:	e1a01006 	mov	r1, r6
    c9b4:	e58d0038 	str	r0, [sp, #56]
    c9b8:	eb00067c 	bl	e3b0 <__mcmp>
    c9bc:	e3500000 	cmp	r0, #0	; 0x0
    c9c0:	da000022 	ble	ca50 <.text+0x4a30>
    c9c4:	e2899001 	add	r9, r9, #1	; 0x1
    c9c8:	e359003a 	cmp	r9, #58	; 0x3a
    c9cc:	0a000017 	beq	ca30 <.text+0x4a10>
    c9d0:	e4c59001 	strb	r9, [r5], #1
    c9d4:	e1a07005 	mov	r7, r5
    c9d8:	eafffde7 	b	c17c <.text+0x415c>
    c9dc:	e59a1004 	ldr	r1, [sl, #4]
    c9e0:	e59d0008 	ldr	r0, [sp, #8]
    c9e4:	eb0006ff 	bl	e5e8 <_Balloc>
    c9e8:	e59a2010 	ldr	r2, [sl, #16]
    c9ec:	e1a02102 	mov	r2, r2, lsl #2
    c9f0:	e1a04000 	mov	r4, r0
    c9f4:	e2822008 	add	r2, r2, #8	; 0x8
    c9f8:	e28a100c 	add	r1, sl, #12	; 0xc
    c9fc:	e280000c 	add	r0, r0, #12	; 0xc
    ca00:	eb0005c0 	bl	e108 <memcpy>
    ca04:	e59d0008 	ldr	r0, [sp, #8]
    ca08:	e1a01004 	mov	r1, r4
    ca0c:	e3a02001 	mov	r2, #1	; 0x1
    ca10:	eb0007b4 	bl	e8e8 <_lshift>
    ca14:	e1a0b000 	mov	fp, r0
    ca18:	eafffea0 	b	c4a0 <.text+0x4480>
    ca1c:	e3590039 	cmp	r9, #57	; 0x39
    ca20:	12893001 	addne	r3, r9, #1	; 0x1
    ca24:	14c53001 	strneb	r3, [r5], #1
    ca28:	11a07005 	movne	r7, r5
    ca2c:	1afffdd2 	bne	c17c <.text+0x415c>
    ca30:	e3a03039 	mov	r3, #57	; 0x39
    ca34:	e4c53001 	strb	r3, [r5], #1
    ca38:	eafffef7 	b	c61c <.text+0x45fc>
    ca3c:	e3590039 	cmp	r9, #57	; 0x39
    ca40:	0afffffa 	beq	ca30 <.text+0x4a10>
    ca44:	e3580000 	cmp	r8, #0	; 0x0
    ca48:	c2899001 	addgt	r9, r9, #1	; 0x1
    ca4c:	eaffffdf 	b	c9d0 <.text+0x49b0>
    ca50:	1affffde 	bne	c9d0 <.text+0x49b0>
    ca54:	e3190001 	tst	r9, #1	; 0x1
    ca58:	0affffdc 	beq	c9d0 <.text+0x49b0>
    ca5c:	eaffffd8 	b	c9c4 <.text+0x49a4>
    ca60:	e59de01c 	ldr	lr, [sp, #28]
    ca64:	e1a05000 	mov	r5, r0
    ca68:	e35e000e 	cmp	lr, #14	; 0xe
    ca6c:	83a04000 	movhi	r4, #0	; 0x0
    ca70:	93a04001 	movls	r4, #1	; 0x1
    ca74:	eafffbce 	b	b9b4 <.text+0x3994>

0000ca78 <__errno>:
    ca78:	e59f3004 	ldr	r3, [pc, #4]	; ca84 <.text+0x4a64>
    ca7c:	e5930000 	ldr	r0, [r3]
    ca80:	e12fff1e 	bx	lr
    ca84:	00010c00 	andeq	r0, r1, r0, lsl #24

0000ca88 <fflush>:
    ca88:	e92d4070 	stmdb	sp!, {r4, r5, r6, lr}
    ca8c:	e2506000 	subs	r6, r0, #0	; 0x0
    ca90:	0a00002c 	beq	cb48 <fflush+0xc0>
    ca94:	e59f30c0 	ldr	r3, [pc, #192]	; cb5c <.text+0x4b3c>
    ca98:	e5930000 	ldr	r0, [r3]
    ca9c:	e3500000 	cmp	r0, #0	; 0x0
    caa0:	0a000002 	beq	cab0 <fflush+0x28>
    caa4:	e5903038 	ldr	r3, [r0, #56]
    caa8:	e3530000 	cmp	r3, #0	; 0x0
    caac:	0a000023 	beq	cb40 <fflush+0xb8>
    cab0:	e1d610fc 	ldrsh	r1, [r6, #12]
    cab4:	e3110008 	tst	r1, #8	; 0x8
    cab8:	0a00001c 	beq	cb30 <fflush+0xa8>
    cabc:	e5965010 	ldr	r5, [r6, #16]
    cac0:	e3550000 	cmp	r5, #0	; 0x0
    cac4:	0a000019 	beq	cb30 <fflush+0xa8>
    cac8:	e5963000 	ldr	r3, [r6]
    cacc:	e3110003 	tst	r1, #3	; 0x3
    cad0:	e0654003 	rsb	r4, r5, r3
    cad4:	e5865000 	str	r5, [r6]
    cad8:	13a03000 	movne	r3, #0	; 0x0
    cadc:	0a000015 	beq	cb38 <fflush+0xb0>
    cae0:	e3540000 	cmp	r4, #0	; 0x0
    cae4:	e5863008 	str	r3, [r6, #8]
    cae8:	ca000002 	bgt	caf8 <fflush+0x70>
    caec:	ea00000f 	b	cb30 <fflush+0xa8>
    caf0:	e3540000 	cmp	r4, #0	; 0x0
    caf4:	da00000d 	ble	cb30 <fflush+0xa8>
    caf8:	e1a01005 	mov	r1, r5
    cafc:	e1a02004 	mov	r2, r4
    cb00:	e596001c 	ldr	r0, [r6, #28]
    cb04:	e1a0e00f 	mov	lr, pc
    cb08:	e596f024 	ldr	pc, [r6, #36]
    cb0c:	e3500000 	cmp	r0, #0	; 0x0
    cb10:	e0855000 	add	r5, r5, r0
    cb14:	e0604004 	rsb	r4, r0, r4
    cb18:	cafffff4 	bgt	caf0 <fflush+0x68>
    cb1c:	e1d630bc 	ldrh	r3, [r6, #12]
    cb20:	e3e00000 	mvn	r0, #0	; 0x0
    cb24:	e3833040 	orr	r3, r3, #64	; 0x40
    cb28:	e1c630bc 	strh	r3, [r6, #12]
    cb2c:	e8bd8070 	ldmia	sp!, {r4, r5, r6, pc}
    cb30:	e3a00000 	mov	r0, #0	; 0x0
    cb34:	e8bd8070 	ldmia	sp!, {r4, r5, r6, pc}
    cb38:	e5963014 	ldr	r3, [r6, #20]
    cb3c:	eaffffe7 	b	cae0 <fflush+0x58>
    cb40:	eb000023 	bl	cbd4 <__sinit>
    cb44:	eaffffd9 	b	cab0 <fflush+0x28>
    cb48:	e59f3010 	ldr	r3, [pc, #16]	; cb60 <.text+0x4b40>
    cb4c:	e59f1010 	ldr	r1, [pc, #16]	; cb64 <.text+0x4b44>
    cb50:	e5930000 	ldr	r0, [r3]
    cb54:	e8bd4070 	ldmia	sp!, {r4, r5, r6, lr}
    cb58:	ea0002a4 	b	d5f0 <_fwalk>
    cb5c:	00010c00 	andeq	r0, r1, r0, lsl #24
    cb60:	00010778 	andeq	r0, r1, r8, ror r7
    cb64:	0000ca88 	andeq	ip, r0, r8, lsl #21

0000cb68 <std>:
    cb68:	e59f3044 	ldr	r3, [pc, #68]	; cbb4 <.text+0x4b94>
    cb6c:	e580302c 	str	r3, [r0, #44]
    cb70:	e59f3040 	ldr	r3, [pc, #64]	; cbb8 <.text+0x4b98>
    cb74:	e1c020be 	strh	r2, [r0, #14]
    cb78:	e5803020 	str	r3, [r0, #32]
    cb7c:	e59f2038 	ldr	r2, [pc, #56]	; cbbc <.text+0x4b9c>
    cb80:	e59f3038 	ldr	r3, [pc, #56]	; cbc0 <.text+0x4ba0>
    cb84:	e3a0c000 	mov	ip, #0	; 0x0
    cb88:	e1c010bc 	strh	r1, [r0, #12]
    cb8c:	e580c018 	str	ip, [r0, #24]
    cb90:	e5802024 	str	r2, [r0, #36]
    cb94:	e5803028 	str	r3, [r0, #40]
    cb98:	e580c000 	str	ip, [r0]
    cb9c:	e580c004 	str	ip, [r0, #4]
    cba0:	e580c008 	str	ip, [r0, #8]
    cba4:	e580c010 	str	ip, [r0, #16]
    cba8:	e580c014 	str	ip, [r0, #20]
    cbac:	e580001c 	str	r0, [r0, #28]
    cbb0:	e12fff1e 	bx	lr
    cbb4:	0000f544 	andeq	pc, r0, r4, asr #10
    cbb8:	0000f600 	andeq	pc, r0, r0, lsl #12
    cbbc:	0000f5a0 	andeq	pc, r0, r0, lsr #11
    cbc0:	0000f558 	andeq	pc, r0, r8, asr r5

0000cbc4 <__sfp_lock_acquire>:
    cbc4:	e12fff1e 	bx	lr

0000cbc8 <__sfp_lock_release>:
    cbc8:	e12fff1e 	bx	lr

0000cbcc <__sinit_lock_acquire>:
    cbcc:	e12fff1e 	bx	lr

0000cbd0 <__sinit_lock_release>:
    cbd0:	e12fff1e 	bx	lr

0000cbd4 <__sinit>:
    cbd4:	e92d4070 	stmdb	sp!, {r4, r5, r6, lr}
    cbd8:	e590e038 	ldr	lr, [r0, #56]
    cbdc:	e25e2000 	subs	r2, lr, #0	; 0x0
    cbe0:	e3a06001 	mov	r6, #1	; 0x1
    cbe4:	e3a01004 	mov	r1, #4	; 0x4
    cbe8:	e1a04000 	mov	r4, r0
    cbec:	e2805fbb 	add	r5, r0, #748	; 0x2ec
    cbf0:	e1a03000 	mov	r3, r0
    cbf4:	18bd8070 	ldmneia	sp!, {r4, r5, r6, pc}
    cbf8:	e59f0048 	ldr	r0, [pc, #72]	; cc48 <.text+0x4c28>
    cbfc:	e3a0c003 	mov	ip, #3	; 0x3
    cc00:	e584003c 	str	r0, [r4, #60]
    cc04:	e584c2e4 	str	ip, [r4, #740]
    cc08:	e584e2e0 	str	lr, [r4, #736]
    cc0c:	e5940004 	ldr	r0, [r4, #4]
    cc10:	e58452e8 	str	r5, [r4, #744]
    cc14:	e5846038 	str	r6, [r4, #56]
    cc18:	ebffffd2 	bl	cb68 <std>
    cc1c:	e1a02006 	mov	r2, r6
    cc20:	e5940008 	ldr	r0, [r4, #8]
    cc24:	e1a03004 	mov	r3, r4
    cc28:	e3a01009 	mov	r1, #9	; 0x9
    cc2c:	ebffffcd 	bl	cb68 <std>
    cc30:	e594000c 	ldr	r0, [r4, #12]
    cc34:	e1a03004 	mov	r3, r4
    cc38:	e3a0100a 	mov	r1, #10	; 0xa
    cc3c:	e3a02002 	mov	r2, #2	; 0x2
    cc40:	e8bd4070 	ldmia	sp!, {r4, r5, r6, lr}
    cc44:	eaffffc7 	b	cb68 <std>
    cc48:	0000cc8c 	andeq	ip, r0, ip, lsl #25

0000cc4c <__fp_lock>:
    cc4c:	e3a00000 	mov	r0, #0	; 0x0
    cc50:	e12fff1e 	bx	lr

0000cc54 <__fp_unlock>:
    cc54:	e3a00000 	mov	r0, #0	; 0x0
    cc58:	e12fff1e 	bx	lr

0000cc5c <__fp_unlock_all>:
    cc5c:	e59f3008 	ldr	r3, [pc, #8]	; cc6c <.text+0x4c4c>
    cc60:	e59f1008 	ldr	r1, [pc, #8]	; cc70 <.text+0x4c50>
    cc64:	e5930000 	ldr	r0, [r3]
    cc68:	ea000260 	b	d5f0 <_fwalk>
    cc6c:	00010c00 	andeq	r0, r1, r0, lsl #24
    cc70:	0000cc54 	andeq	ip, r0, r4, asr ip

0000cc74 <__fp_lock_all>:
    cc74:	e59f3008 	ldr	r3, [pc, #8]	; cc84 <.text+0x4c64>
    cc78:	e59f1008 	ldr	r1, [pc, #8]	; cc88 <.text+0x4c68>
    cc7c:	e5930000 	ldr	r0, [r3]
    cc80:	ea00025a 	b	d5f0 <_fwalk>
    cc84:	00010c00 	andeq	r0, r1, r0, lsl #24
    cc88:	0000cc4c 	andeq	ip, r0, ip, asr #24

0000cc8c <_cleanup_r>:
    cc8c:	e59f1000 	ldr	r1, [pc, #0]	; cc94 <.text+0x4c74>
    cc90:	ea000256 	b	d5f0 <_fwalk>
    cc94:	0000f9d0 	ldreqd	pc, [r0], -r0

0000cc98 <_cleanup>:
    cc98:	e59f3004 	ldr	r3, [pc, #4]	; cca4 <.text+0x4c84>
    cc9c:	e5930000 	ldr	r0, [r3]
    cca0:	eafffff9 	b	cc8c <_cleanup_r>
    cca4:	00010778 	andeq	r0, r1, r8, ror r7

0000cca8 <__sfmoreglue>:
    cca8:	e92d4070 	stmdb	sp!, {r4, r5, r6, lr}
    ccac:	e0814081 	add	r4, r1, r1, lsl #1
    ccb0:	e0614184 	rsb	r4, r1, r4, lsl #3
    ccb4:	e1a04104 	mov	r4, r4, lsl #2
    ccb8:	e1a06001 	mov	r6, r1
    ccbc:	e284100c 	add	r1, r4, #12	; 0xc
    ccc0:	eb0002f5 	bl	d89c <_malloc_r>
    ccc4:	e250c000 	subs	ip, r0, #0	; 0x0
    ccc8:	e3a0e000 	mov	lr, #0	; 0x0
    cccc:	e28c300c 	add	r3, ip, #12	; 0xc
    ccd0:	e1a0500c 	mov	r5, ip
    ccd4:	e1a00003 	mov	r0, r3
    ccd8:	e1a0100e 	mov	r1, lr
    ccdc:	e1a02004 	mov	r2, r4
    cce0:	158c6004 	strne	r6, [ip, #4]
    cce4:	158ce000 	strne	lr, [ip]
    cce8:	158c3008 	strne	r3, [ip, #8]
    ccec:	1bffed96 	blne	834c <memset>
    ccf0:	e1a00005 	mov	r0, r5
    ccf4:	e8bd8070 	ldmia	sp!, {r4, r5, r6, pc}

0000ccf8 <__sfp>:
    ccf8:	e59f30d0 	ldr	r3, [pc, #208]	; cdd0 <.text+0x4db0>
    ccfc:	e92d4030 	stmdb	sp!, {r4, r5, lr}
    cd00:	e5934000 	ldr	r4, [r3]
    cd04:	e5942038 	ldr	r2, [r4, #56]
    cd08:	e3520000 	cmp	r2, #0	; 0x0
    cd0c:	e1a05000 	mov	r5, r0
    cd10:	0a000021 	beq	cd9c <__sfp+0xa4>
    cd14:	e2844e2e 	add	r4, r4, #736	; 0x2e0
    cd18:	e5942004 	ldr	r2, [r4, #4]
    cd1c:	e3520001 	cmp	r2, #1	; 0x1
    cd20:	e5940008 	ldr	r0, [r4, #8]
    cd24:	5a000004 	bpl	cd3c <__sfp+0x44>
    cd28:	ea000016 	b	cd88 <__sfp+0x90>
    cd2c:	e3520001 	cmp	r2, #1	; 0x1
    cd30:	e280005c 	add	r0, r0, #92	; 0x5c
    cd34:	e2422001 	sub	r2, r2, #1	; 0x1
    cd38:	0a000012 	beq	cd88 <__sfp+0x90>
    cd3c:	e1d030fc 	ldrsh	r3, [r0, #12]
    cd40:	e3530000 	cmp	r3, #0	; 0x0
    cd44:	1afffff8 	bne	cd2c <__sfp+0x34>
    cd48:	e3a03000 	mov	r3, #0	; 0x0
    cd4c:	e5803048 	str	r3, [r0, #72]
    cd50:	e5803000 	str	r3, [r0]
    cd54:	e5803008 	str	r3, [r0, #8]
    cd58:	e5803004 	str	r3, [r0, #4]
    cd5c:	e5803010 	str	r3, [r0, #16]
    cd60:	e5803014 	str	r3, [r0, #20]
    cd64:	e5803018 	str	r3, [r0, #24]
    cd68:	e5803030 	str	r3, [r0, #48]
    cd6c:	e5803034 	str	r3, [r0, #52]
    cd70:	e5803044 	str	r3, [r0, #68]
    cd74:	e3e03000 	mvn	r3, #0	; 0x0
    cd78:	e1c030be 	strh	r3, [r0, #14]
    cd7c:	e3a03001 	mov	r3, #1	; 0x1
    cd80:	e1c030bc 	strh	r3, [r0, #12]
    cd84:	e8bd8030 	ldmia	sp!, {r4, r5, pc}
    cd88:	e5940000 	ldr	r0, [r4]
    cd8c:	e3500000 	cmp	r0, #0	; 0x0
    cd90:	0a000004 	beq	cda8 <__sfp+0xb0>
    cd94:	e1a04000 	mov	r4, r0
    cd98:	eaffffde 	b	cd18 <__sfp+0x20>
    cd9c:	e1a00004 	mov	r0, r4
    cda0:	ebffff8b 	bl	cbd4 <__sinit>
    cda4:	eaffffda 	b	cd14 <__sfp+0x1c>
    cda8:	e1a00005 	mov	r0, r5
    cdac:	e3a01004 	mov	r1, #4	; 0x4
    cdb0:	ebffffbc 	bl	cca8 <__sfmoreglue>
    cdb4:	e3500000 	cmp	r0, #0	; 0x0
    cdb8:	e5840000 	str	r0, [r4]
    cdbc:	1afffff4 	bne	cd94 <__sfp+0x9c>
    cdc0:	e3a0300c 	mov	r3, #12	; 0xc
    cdc4:	e3a00000 	mov	r0, #0	; 0x0
    cdc8:	e5853000 	str	r3, [r5]
    cdcc:	e8bd8030 	ldmia	sp!, {r4, r5, pc}
    cdd0:	00010778 	andeq	r0, r1, r8, ror r7

0000cdd4 <_malloc_trim_r>:
    cdd4:	e92d40f0 	stmdb	sp!, {r4, r5, r6, r7, lr}
    cdd8:	e59f70e4 	ldr	r7, [pc, #228]	; cec4 <.text+0x4ea4>
    cddc:	e1a04001 	mov	r4, r1
    cde0:	e1a05000 	mov	r5, r0
    cde4:	eb00052d 	bl	e2a0 <__malloc_lock>
    cde8:	e5973008 	ldr	r3, [r7, #8]
    cdec:	e5932004 	ldr	r2, [r3, #4]
    cdf0:	e3c26003 	bic	r6, r2, #3	; 0x3
    cdf4:	e0644006 	rsb	r4, r4, r6
    cdf8:	e2844efe 	add	r4, r4, #4064	; 0xfe0
    cdfc:	e284400f 	add	r4, r4, #15	; 0xf
    ce00:	e1a04624 	mov	r4, r4, lsr #12
    ce04:	e2444001 	sub	r4, r4, #1	; 0x1
    ce08:	e1a04604 	mov	r4, r4, lsl #12
    ce0c:	e3540a01 	cmp	r4, #4096	; 0x1000
    ce10:	e3a01000 	mov	r1, #0	; 0x0
    ce14:	e1a00005 	mov	r0, r5
    ce18:	ba000006 	blt	ce38 <_malloc_trim_r+0x64>
    ce1c:	eb0009ba 	bl	f50c <_sbrk_r>
    ce20:	e5973008 	ldr	r3, [r7, #8]
    ce24:	e0863003 	add	r3, r6, r3
    ce28:	e1500003 	cmp	r0, r3
    ce2c:	e2641000 	rsb	r1, r4, #0	; 0x0
    ce30:	e1a00005 	mov	r0, r5
    ce34:	0a000002 	beq	ce44 <_malloc_trim_r+0x70>
    ce38:	eb000519 	bl	e2a4 <__malloc_unlock>
    ce3c:	e3a00000 	mov	r0, #0	; 0x0
    ce40:	e8bd80f0 	ldmia	sp!, {r4, r5, r6, r7, pc}
    ce44:	eb0009b0 	bl	f50c <_sbrk_r>
    ce48:	e0643006 	rsb	r3, r4, r6
    ce4c:	e3700001 	cmn	r0, #1	; 0x1
    ce50:	e3a01000 	mov	r1, #0	; 0x0
    ce54:	e59fe06c 	ldr	lr, [pc, #108]	; cec8 <.text+0x4ea8>
    ce58:	e383c001 	orr	ip, r3, #1	; 0x1
    ce5c:	e1a00005 	mov	r0, r5
    ce60:	0a000008 	beq	ce88 <_malloc_trim_r+0xb4>
    ce64:	e59e3000 	ldr	r3, [lr]
    ce68:	e5972008 	ldr	r2, [r7, #8]
    ce6c:	e0643003 	rsb	r3, r4, r3
    ce70:	e1a00005 	mov	r0, r5
    ce74:	e582c004 	str	ip, [r2, #4]
    ce78:	e58e3000 	str	r3, [lr]
    ce7c:	eb000508 	bl	e2a4 <__malloc_unlock>
    ce80:	e3a00001 	mov	r0, #1	; 0x1
    ce84:	e8bd80f0 	ldmia	sp!, {r4, r5, r6, r7, pc}
    ce88:	eb00099f 	bl	f50c <_sbrk_r>
    ce8c:	e5971008 	ldr	r1, [r7, #8]
    ce90:	e1a0e000 	mov	lr, r0
    ce94:	e061300e 	rsb	r3, r1, lr
    ce98:	e353000f 	cmp	r3, #15	; 0xf
    ce9c:	e1a00005 	mov	r0, r5
    cea0:	e383c001 	orr	ip, r3, #1	; 0x1
    cea4:	daffffe3 	ble	ce38 <_malloc_trim_r+0x64>
    cea8:	e59f301c 	ldr	r3, [pc, #28]	; cecc <.text+0x4eac>
    ceac:	e5932000 	ldr	r2, [r3]
    ceb0:	e59f3010 	ldr	r3, [pc, #16]	; cec8 <.text+0x4ea8>
    ceb4:	e062200e 	rsb	r2, r2, lr
    ceb8:	e5832000 	str	r2, [r3]
    cebc:	e581c004 	str	ip, [r1, #4]
    cec0:	eaffffdc 	b	ce38 <_malloc_trim_r+0x64>
    cec4:	00011014 	andeq	r1, r1, r4, lsl r0
    cec8:	0001150c 	andeq	r1, r1, ip, lsl #10
    cecc:	00011420 	andeq	r1, r1, r0, lsr #8

0000ced0 <_free_r>:
    ced0:	e92d45f0 	stmdb	sp!, {r4, r5, r6, r7, r8, sl, lr}
    ced4:	e2514000 	subs	r4, r1, #0	; 0x0
    ced8:	e1a08000 	mov	r8, r0
    cedc:	08bd85f0 	ldmeqia	sp!, {r4, r5, r6, r7, r8, sl, pc}
    cee0:	eb0004ee 	bl	e2a0 <__malloc_lock>
    cee4:	e244e008 	sub	lr, r4, #8	; 0x8
    cee8:	e59e0004 	ldr	r0, [lr, #4]
    ceec:	e59f726c 	ldr	r7, [pc, #620]	; d160 <.text+0x5140>
    cef0:	e3c01001 	bic	r1, r0, #1	; 0x1
    cef4:	e08ec001 	add	ip, lr, r1
    cef8:	e5973008 	ldr	r3, [r7, #8]
    cefc:	e59c2004 	ldr	r2, [ip, #4]
    cf00:	e15c0003 	cmp	ip, r3
    cf04:	e3c25003 	bic	r5, r2, #3	; 0x3
    cf08:	e1a0a007 	mov	sl, r7
    cf0c:	0a000077 	beq	d0f0 <_free_r+0x220>
    cf10:	e2106001 	ands	r6, r0, #1	; 0x1
    cf14:	e58c5004 	str	r5, [ip, #4]
    cf18:	13a00000 	movne	r0, #0	; 0x0
    cf1c:	0a000018 	beq	cf84 <_free_r+0xb4>
    cf20:	e08c3005 	add	r3, ip, r5
    cf24:	e5932004 	ldr	r2, [r3, #4]
    cf28:	e3120001 	tst	r2, #1	; 0x1
    cf2c:	0a000007 	beq	cf50 <_free_r+0x80>
    cf30:	e3813001 	orr	r3, r1, #1	; 0x1
    cf34:	e3500000 	cmp	r0, #0	; 0x0
    cf38:	e58e3004 	str	r3, [lr, #4]
    cf3c:	e781100e 	str	r1, [r1, lr]
    cf40:	0a00001f 	beq	cfc4 <_free_r+0xf4>
    cf44:	e1a00008 	mov	r0, r8
    cf48:	e8bd45f0 	ldmia	sp!, {r4, r5, r6, r7, r8, sl, lr}
    cf4c:	ea0004d4 	b	e2a4 <__malloc_unlock>
    cf50:	e3500000 	cmp	r0, #0	; 0x0
    cf54:	e0811005 	add	r1, r1, r5
    cf58:	159c2008 	ldrne	r2, [ip, #8]
    cf5c:	0a00004a 	beq	d08c <_free_r+0x1bc>
    cf60:	e59c300c 	ldr	r3, [ip, #12]
    cf64:	e3500000 	cmp	r0, #0	; 0x0
    cf68:	e5832008 	str	r2, [r3, #8]
    cf6c:	e582300c 	str	r3, [r2, #12]
    cf70:	e3813001 	orr	r3, r1, #1	; 0x1
    cf74:	e58e3004 	str	r3, [lr, #4]
    cf78:	e781100e 	str	r1, [r1, lr]
    cf7c:	1afffff0 	bne	cf44 <_free_r+0x74>
    cf80:	ea00000f 	b	cfc4 <_free_r+0xf4>
    cf84:	e5142008 	ldr	r2, [r4, #-8]
    cf88:	e062e00e 	rsb	lr, r2, lr
    cf8c:	e59e0008 	ldr	r0, [lr, #8]
    cf90:	e2873008 	add	r3, r7, #8	; 0x8
    cf94:	e1500003 	cmp	r0, r3
    cf98:	159e300c 	ldrne	r3, [lr, #12]
    cf9c:	15830008 	strne	r0, [r3, #8]
    cfa0:	1580300c 	strne	r3, [r0, #12]
    cfa4:	e08c3005 	add	r3, ip, r5
    cfa8:	e0811002 	add	r1, r1, r2
    cfac:	e5932004 	ldr	r2, [r3, #4]
    cfb0:	03a00001 	moveq	r0, #1	; 0x1
    cfb4:	11a00006 	movne	r0, r6
    cfb8:	e3120001 	tst	r2, #1	; 0x1
    cfbc:	1affffdb 	bne	cf30 <_free_r+0x60>
    cfc0:	eaffffe2 	b	cf50 <_free_r+0x80>
    cfc4:	e3510c02 	cmp	r1, #512	; 0x200
    cfc8:	3a00003b 	bcc	d0bc <_free_r+0x1ec>
    cfcc:	e1b024a1 	movs	r2, r1, lsr #9
    cfd0:	01a021a1 	moveq	r2, r1, lsr #3
    cfd4:	01a03182 	moveq	r3, r2, lsl #3
    cfd8:	0a00001a 	beq	d048 <_free_r+0x178>
    cfdc:	e3520004 	cmp	r2, #4	; 0x4
    cfe0:	91a03321 	movls	r3, r1, lsr #6
    cfe4:	92832038 	addls	r2, r3, #56	; 0x38
    cfe8:	91a03182 	movls	r3, r2, lsl #3
    cfec:	9a000015 	bls	d048 <_free_r+0x178>
    cff0:	e3520014 	cmp	r2, #20	; 0x14
    cff4:	9282205b 	addls	r2, r2, #91	; 0x5b
    cff8:	91a03182 	movls	r3, r2, lsl #3
    cffc:	9a000011 	bls	d048 <_free_r+0x178>
    d000:	e3520054 	cmp	r2, #84	; 0x54
    d004:	91a03621 	movls	r3, r1, lsr #12
    d008:	9283206e 	addls	r2, r3, #110	; 0x6e
    d00c:	91a03182 	movls	r3, r2, lsl #3
    d010:	9a00000c 	bls	d048 <_free_r+0x178>
    d014:	e3520f55 	cmp	r2, #340	; 0x154
    d018:	91a037a1 	movls	r3, r1, lsr #15
    d01c:	92832077 	addls	r2, r3, #119	; 0x77
    d020:	91a03182 	movls	r3, r2, lsl #3
    d024:	9a000007 	bls	d048 <_free_r+0x178>
    d028:	e3a03e55 	mov	r3, #1360	; 0x550
    d02c:	e2833004 	add	r3, r3, #4	; 0x4
    d030:	e1520003 	cmp	r2, r3
    d034:	91a03921 	movls	r3, r1, lsr #18
    d038:	9283207c 	addls	r2, r3, #124	; 0x7c
    d03c:	83a0207e 	movhi	r2, #126	; 0x7e
    d040:	82433f59 	subhi	r3, r3, #356	; 0x164
    d044:	91a03182 	movls	r3, r2, lsl #3
    d048:	e083c00a 	add	ip, r3, sl
    d04c:	e59c0008 	ldr	r0, [ip, #8]
    d050:	e15c0000 	cmp	ip, r0
    d054:	0a00003b 	beq	d148 <_free_r+0x278>
    d058:	e5903004 	ldr	r3, [r0, #4]
    d05c:	e3c33003 	bic	r3, r3, #3	; 0x3
    d060:	e1510003 	cmp	r1, r3
    d064:	2a000002 	bcs	d074 <_free_r+0x1a4>
    d068:	e5900008 	ldr	r0, [r0, #8]
    d06c:	e15c0000 	cmp	ip, r0
    d070:	1afffff8 	bne	d058 <_free_r+0x188>
    d074:	e590c00c 	ldr	ip, [r0, #12]
    d078:	e58ec00c 	str	ip, [lr, #12]
    d07c:	e58e0008 	str	r0, [lr, #8]
    d080:	e580e00c 	str	lr, [r0, #12]
    d084:	e58ce008 	str	lr, [ip, #8]
    d088:	eaffffad 	b	cf44 <_free_r+0x74>
    d08c:	e59c2008 	ldr	r2, [ip, #8]
    d090:	e59f30cc 	ldr	r3, [pc, #204]	; d164 <.text+0x5144>
    d094:	e1520003 	cmp	r2, r3
    d098:	1affffb0 	bne	cf60 <_free_r+0x90>
    d09c:	e3813001 	orr	r3, r1, #1	; 0x1
    d0a0:	e582e00c 	str	lr, [r2, #12]
    d0a4:	e582e008 	str	lr, [r2, #8]
    d0a8:	e781100e 	str	r1, [r1, lr]
    d0ac:	e58e3004 	str	r3, [lr, #4]
    d0b0:	e58e2008 	str	r2, [lr, #8]
    d0b4:	e58e200c 	str	r2, [lr, #12]
    d0b8:	eaffffa1 	b	cf44 <_free_r+0x74>
    d0bc:	e1a011a1 	mov	r1, r1, lsr #3
    d0c0:	e5972004 	ldr	r2, [r7, #4]
    d0c4:	e1a00121 	mov	r0, r1, lsr #2
    d0c8:	e3a03001 	mov	r3, #1	; 0x1
    d0cc:	e1822013 	orr	r2, r2, r3, lsl r0
    d0d0:	e08a1181 	add	r1, sl, r1, lsl #3
    d0d4:	e5913008 	ldr	r3, [r1, #8]
    d0d8:	e58e100c 	str	r1, [lr, #12]
    d0dc:	e58e3008 	str	r3, [lr, #8]
    d0e0:	e5872004 	str	r2, [r7, #4]
    d0e4:	e583e00c 	str	lr, [r3, #12]
    d0e8:	e581e008 	str	lr, [r1, #8]
    d0ec:	eaffff94 	b	cf44 <_free_r+0x74>
    d0f0:	e3100001 	tst	r0, #1	; 0x1
    d0f4:	e0810005 	add	r0, r1, r5
    d0f8:	1a000006 	bne	d118 <_free_r+0x248>
    d0fc:	e5141008 	ldr	r1, [r4, #-8]
    d100:	e061e00e 	rsb	lr, r1, lr
    d104:	e59e200c 	ldr	r2, [lr, #12]
    d108:	e59e3008 	ldr	r3, [lr, #8]
    d10c:	e5823008 	str	r3, [r2, #8]
    d110:	e583200c 	str	r2, [r3, #12]
    d114:	e0800001 	add	r0, r0, r1
    d118:	e59f3048 	ldr	r3, [pc, #72]	; d168 <.text+0x5148>
    d11c:	e5932000 	ldr	r2, [r3]
    d120:	e3803001 	orr	r3, r0, #1	; 0x1
    d124:	e1500002 	cmp	r0, r2
    d128:	e587e008 	str	lr, [r7, #8]
    d12c:	e58e3004 	str	r3, [lr, #4]
    d130:	3affff83 	bcc	cf44 <_free_r+0x74>
    d134:	e59f3030 	ldr	r3, [pc, #48]	; d16c <.text+0x514c>
    d138:	e1a00008 	mov	r0, r8
    d13c:	e5931000 	ldr	r1, [r3]
    d140:	ebffff23 	bl	cdd4 <_malloc_trim_r>
    d144:	eaffff7e 	b	cf44 <_free_r+0x74>
    d148:	e5973004 	ldr	r3, [r7, #4]
    d14c:	e1a01122 	mov	r1, r2, lsr #2
    d150:	e3a02001 	mov	r2, #1	; 0x1
    d154:	e1833112 	orr	r3, r3, r2, lsl r1
    d158:	e5873004 	str	r3, [r7, #4]
    d15c:	eaffffc5 	b	d078 <_free_r+0x1a8>
    d160:	00011014 	andeq	r1, r1, r4, lsl r0
    d164:	0001101c 	andeq	r1, r1, ip, lsl r0
    d168:	0001141c 	andeq	r1, r1, ip, lsl r4
    d16c:	00011500 	andeq	r1, r1, r0, lsl #10

0000d170 <__sfvwrite>:
    d170:	e92d4ff0 	stmdb	sp!, {r4, r5, r6, r7, r8, r9, sl, fp, lr}
    d174:	e5913008 	ldr	r3, [r1, #8]
    d178:	e3530000 	cmp	r3, #0	; 0x0
    d17c:	e24dd004 	sub	sp, sp, #4	; 0x4
    d180:	e1a0a001 	mov	sl, r1
    d184:	e1a06000 	mov	r6, r0
    d188:	0a00001c 	beq	d200 <__sfvwrite+0x90>
    d18c:	e1d010bc 	ldrh	r1, [r0, #12]
    d190:	e3110008 	tst	r1, #8	; 0x8
    d194:	0a0000e8 	beq	d53c <__sfvwrite+0x3cc>
    d198:	e5903010 	ldr	r3, [r0, #16]
    d19c:	e3530000 	cmp	r3, #0	; 0x0
    d1a0:	0a0000e5 	beq	d53c <__sfvwrite+0x3cc>
    d1a4:	e3110002 	tst	r1, #2	; 0x2
    d1a8:	13a04000 	movne	r4, #0	; 0x0
    d1ac:	e59a8000 	ldr	r8, [sl]
    d1b0:	11a05004 	movne	r5, r4
    d1b4:	0a000018 	beq	d21c <__sfvwrite+0xac>
    d1b8:	e3540000 	cmp	r4, #0	; 0x0
    d1bc:	e1a01005 	mov	r1, r5
    d1c0:	0a000011 	beq	d20c <__sfvwrite+0x9c>
    d1c4:	e3540b01 	cmp	r4, #1024	; 0x400
    d1c8:	31a02004 	movcc	r2, r4
    d1cc:	23a02b01 	movcs	r2, #1024	; 0x400
    d1d0:	e596001c 	ldr	r0, [r6, #28]
    d1d4:	e1a0e00f 	mov	lr, pc
    d1d8:	e596f024 	ldr	pc, [r6, #36]
    d1dc:	e3500000 	cmp	r0, #0	; 0x0
    d1e0:	e0604004 	rsb	r4, r0, r4
    d1e4:	e0855000 	add	r5, r5, r0
    d1e8:	da00005b 	ble	d35c <__sfvwrite+0x1ec>
    d1ec:	e59a3008 	ldr	r3, [sl, #8]
    d1f0:	e0603003 	rsb	r3, r0, r3
    d1f4:	e3530000 	cmp	r3, #0	; 0x0
    d1f8:	e58a3008 	str	r3, [sl, #8]
    d1fc:	1affffed 	bne	d1b8 <__sfvwrite+0x48>
    d200:	e3a00000 	mov	r0, #0	; 0x0
    d204:	e28dd004 	add	sp, sp, #4	; 0x4
    d208:	e8bd8ff0 	ldmia	sp!, {r4, r5, r6, r7, r8, r9, sl, fp, pc}
    d20c:	e5985000 	ldr	r5, [r8]
    d210:	e5984004 	ldr	r4, [r8, #4]
    d214:	e2888008 	add	r8, r8, #8	; 0x8
    d218:	eaffffe6 	b	d1b8 <__sfvwrite+0x48>
    d21c:	e2112001 	ands	r2, r1, #1	; 0x1
    d220:	13a07000 	movne	r7, #0	; 0x0
    d224:	11a09007 	movne	r9, r7
    d228:	158d7000 	strne	r7, [sp]
    d22c:	11a0b007 	movne	fp, r7
    d230:	0a00005b 	beq	d3a4 <__sfvwrite+0x234>
    d234:	e3570000 	cmp	r7, #0	; 0x0
    d238:	0a000025 	beq	d2d4 <__sfvwrite+0x164>
    d23c:	e59d3000 	ldr	r3, [sp]
    d240:	e3530000 	cmp	r3, #0	; 0x0
    d244:	0a000049 	beq	d370 <__sfvwrite+0x200>
    d248:	e596c014 	ldr	ip, [r6, #20]
    d24c:	e5961008 	ldr	r1, [r6, #8]
    d250:	e5960000 	ldr	r0, [r6]
    d254:	e5962010 	ldr	r2, [r6, #16]
    d258:	e157000b 	cmp	r7, fp
    d25c:	31a05007 	movcc	r5, r7
    d260:	21a0500b 	movcs	r5, fp
    d264:	e08c4001 	add	r4, ip, r1
    d268:	e1500002 	cmp	r0, r2
    d26c:	93a03000 	movls	r3, #0	; 0x0
    d270:	83a03001 	movhi	r3, #1	; 0x1
    d274:	e1550004 	cmp	r5, r4
    d278:	d3a03000 	movle	r3, #0	; 0x0
    d27c:	e3530000 	cmp	r3, #0	; 0x0
    d280:	1a00002b 	bne	d334 <__sfvwrite+0x1c4>
    d284:	e155000c 	cmp	r5, ip
    d288:	ba000017 	blt	d2ec <__sfvwrite+0x17c>
    d28c:	e1a0200c 	mov	r2, ip
    d290:	e596001c 	ldr	r0, [r6, #28]
    d294:	e1a01009 	mov	r1, r9
    d298:	e1a0e00f 	mov	lr, pc
    d29c:	e596f024 	ldr	pc, [r6, #36]
    d2a0:	e2504000 	subs	r4, r0, #0	; 0x0
    d2a4:	da00002c 	ble	d35c <__sfvwrite+0x1ec>
    d2a8:	e05bb004 	subs	fp, fp, r4
    d2ac:	0a00001a 	beq	d31c <__sfvwrite+0x1ac>
    d2b0:	e59a3008 	ldr	r3, [sl, #8]
    d2b4:	e0643003 	rsb	r3, r4, r3
    d2b8:	e3530000 	cmp	r3, #0	; 0x0
    d2bc:	e58a3008 	str	r3, [sl, #8]
    d2c0:	0affffce 	beq	d200 <__sfvwrite+0x90>
    d2c4:	e0647007 	rsb	r7, r4, r7
    d2c8:	e3570000 	cmp	r7, #0	; 0x0
    d2cc:	e0899004 	add	r9, r9, r4
    d2d0:	1affffd9 	bne	d23c <__sfvwrite+0xcc>
    d2d4:	e5989000 	ldr	r9, [r8]
    d2d8:	e5987004 	ldr	r7, [r8, #4]
    d2dc:	e3a03000 	mov	r3, #0	; 0x0
    d2e0:	e2888008 	add	r8, r8, #8	; 0x8
    d2e4:	e58d3000 	str	r3, [sp]
    d2e8:	eaffffd1 	b	d234 <__sfvwrite+0xc4>
    d2ec:	e1a02005 	mov	r2, r5
    d2f0:	e1a01009 	mov	r1, r9
    d2f4:	eb0003ab 	bl	e1a8 <memmove>
    d2f8:	e5963008 	ldr	r3, [r6, #8]
    d2fc:	e5962000 	ldr	r2, [r6]
    d300:	e1a04005 	mov	r4, r5
    d304:	e0653003 	rsb	r3, r5, r3
    d308:	e0822005 	add	r2, r2, r5
    d30c:	e05bb004 	subs	fp, fp, r4
    d310:	e5863008 	str	r3, [r6, #8]
    d314:	e5862000 	str	r2, [r6]
    d318:	1affffe4 	bne	d2b0 <__sfvwrite+0x140>
    d31c:	e1a00006 	mov	r0, r6
    d320:	ebfffdd8 	bl	ca88 <fflush>
    d324:	e3500000 	cmp	r0, #0	; 0x0
    d328:	1a00000b 	bne	d35c <__sfvwrite+0x1ec>
    d32c:	e58d0000 	str	r0, [sp]
    d330:	eaffffde 	b	d2b0 <__sfvwrite+0x140>
    d334:	e1a01009 	mov	r1, r9
    d338:	e1a02004 	mov	r2, r4
    d33c:	eb000399 	bl	e1a8 <memmove>
    d340:	e5963000 	ldr	r3, [r6]
    d344:	e0833004 	add	r3, r3, r4
    d348:	e5863000 	str	r3, [r6]
    d34c:	e1a00006 	mov	r0, r6
    d350:	ebfffdcc 	bl	ca88 <fflush>
    d354:	e3500000 	cmp	r0, #0	; 0x0
    d358:	0affffd2 	beq	d2a8 <__sfvwrite+0x138>
    d35c:	e1d630bc 	ldrh	r3, [r6, #12]
    d360:	e3e00000 	mvn	r0, #0	; 0x0
    d364:	e3833040 	orr	r3, r3, #64	; 0x40
    d368:	e1c630bc 	strh	r3, [r6, #12]
    d36c:	eaffffa4 	b	d204 <__sfvwrite+0x94>
    d370:	e1a00009 	mov	r0, r9
    d374:	e3a0100a 	mov	r1, #10	; 0xa
    d378:	e1a02007 	mov	r2, r7
    d37c:	eb000322 	bl	e00c <memchr>
    d380:	e3500000 	cmp	r0, #0	; 0x0
    d384:	10693000 	rsbne	r3, r9, r0
    d388:	1283b001 	addne	fp, r3, #1	; 0x1
    d38c:	03a03001 	moveq	r3, #1	; 0x1
    d390:	13a03001 	movne	r3, #1	; 0x1
    d394:	0287b001 	addeq	fp, r7, #1	; 0x1
    d398:	158d3000 	strne	r3, [sp]
    d39c:	058d3000 	streq	r3, [sp]
    d3a0:	eaffffa8 	b	d248 <__sfvwrite+0xd8>
    d3a4:	e1a07002 	mov	r7, r2
    d3a8:	e1a09002 	mov	r9, r2
    d3ac:	e3570000 	cmp	r7, #0	; 0x0
    d3b0:	0a000020 	beq	d438 <__sfvwrite+0x2c8>
    d3b4:	e3110c02 	tst	r1, #512	; 0x200
    d3b8:	e5964008 	ldr	r4, [r6, #8]
    d3bc:	0a000021 	beq	d448 <__sfvwrite+0x2d8>
    d3c0:	e1570004 	cmp	r7, r4
    d3c4:	e1a02004 	mov	r2, r4
    d3c8:	9a000001 	bls	d3d4 <__sfvwrite+0x264>
    d3cc:	e3110080 	tst	r1, #128	; 0x80
    d3d0:	1a000047 	bne	d4f4 <__sfvwrite+0x384>
    d3d4:	e1570002 	cmp	r7, r2
    d3d8:	31a02007 	movcc	r2, r7
    d3dc:	e5960000 	ldr	r0, [r6]
    d3e0:	e1a01009 	mov	r1, r9
    d3e4:	31a04007 	movcc	r4, r7
    d3e8:	eb00036e 	bl	e1a8 <memmove>
    d3ec:	e5963008 	ldr	r3, [r6, #8]
    d3f0:	e5962000 	ldr	r2, [r6]
    d3f4:	e0643003 	rsb	r3, r4, r3
    d3f8:	e0822004 	add	r2, r2, r4
    d3fc:	e5863008 	str	r3, [r6, #8]
    d400:	e5862000 	str	r2, [r6]
    d404:	e1a05007 	mov	r5, r7
    d408:	e1a00007 	mov	r0, r7
    d40c:	e1a04007 	mov	r4, r7
    d410:	e59a3008 	ldr	r3, [sl, #8]
    d414:	e0643003 	rsb	r3, r4, r3
    d418:	e3530000 	cmp	r3, #0	; 0x0
    d41c:	e58a3008 	str	r3, [sl, #8]
    d420:	0affff76 	beq	d200 <__sfvwrite+0x90>
    d424:	e0657007 	rsb	r7, r5, r7
    d428:	e3570000 	cmp	r7, #0	; 0x0
    d42c:	e1d610bc 	ldrh	r1, [r6, #12]
    d430:	e0899000 	add	r9, r9, r0
    d434:	1affffde 	bne	d3b4 <__sfvwrite+0x244>
    d438:	e5989000 	ldr	r9, [r8]
    d43c:	e5987004 	ldr	r7, [r8, #4]
    d440:	e2888008 	add	r8, r8, #8	; 0x8
    d444:	eaffffd8 	b	d3ac <__sfvwrite+0x23c>
    d448:	e5960000 	ldr	r0, [r6]
    d44c:	e5963010 	ldr	r3, [r6, #16]
    d450:	e1500003 	cmp	r0, r3
    d454:	81570004 	cmphi	r7, r4
    d458:	e1a05004 	mov	r5, r4
    d45c:	8a000018 	bhi	d4c4 <__sfvwrite+0x354>
    d460:	e5962014 	ldr	r2, [r6, #20]
    d464:	e1570002 	cmp	r7, r2
    d468:	3a000008 	bcc	d490 <__sfvwrite+0x320>
    d46c:	e596001c 	ldr	r0, [r6, #28]
    d470:	e1a01009 	mov	r1, r9
    d474:	e1a0e00f 	mov	lr, pc
    d478:	e596f024 	ldr	pc, [r6, #36]
    d47c:	e2504000 	subs	r4, r0, #0	; 0x0
    d480:	daffffb5 	ble	d35c <__sfvwrite+0x1ec>
    d484:	e1a05004 	mov	r5, r4
    d488:	e1a00004 	mov	r0, r4
    d48c:	eaffffdf 	b	d410 <__sfvwrite+0x2a0>
    d490:	e1a02007 	mov	r2, r7
    d494:	e1a01009 	mov	r1, r9
    d498:	eb000342 	bl	e1a8 <memmove>
    d49c:	e5963008 	ldr	r3, [r6, #8]
    d4a0:	e5962000 	ldr	r2, [r6]
    d4a4:	e0673003 	rsb	r3, r7, r3
    d4a8:	e0822007 	add	r2, r2, r7
    d4ac:	e1a04007 	mov	r4, r7
    d4b0:	e1a05007 	mov	r5, r7
    d4b4:	e1a00007 	mov	r0, r7
    d4b8:	e5863008 	str	r3, [r6, #8]
    d4bc:	e5862000 	str	r2, [r6]
    d4c0:	eaffffd2 	b	d410 <__sfvwrite+0x2a0>
    d4c4:	e1a01009 	mov	r1, r9
    d4c8:	e1a02004 	mov	r2, r4
    d4cc:	eb000335 	bl	e1a8 <memmove>
    d4d0:	e5963000 	ldr	r3, [r6]
    d4d4:	e0833004 	add	r3, r3, r4
    d4d8:	e5863000 	str	r3, [r6]
    d4dc:	e1a00006 	mov	r0, r6
    d4e0:	ebfffd68 	bl	ca88 <fflush>
    d4e4:	e3500000 	cmp	r0, #0	; 0x0
    d4e8:	e1a00004 	mov	r0, r4
    d4ec:	0affffc7 	beq	d410 <__sfvwrite+0x2a0>
    d4f0:	eaffff99 	b	d35c <__sfvwrite+0x1ec>
    d4f4:	e5961010 	ldr	r1, [r6, #16]
    d4f8:	e5963000 	ldr	r3, [r6]
    d4fc:	e59fb060 	ldr	fp, [pc, #96]	; d564 <.text+0x5544>
    d500:	e0614003 	rsb	r4, r1, r3
    d504:	e0875004 	add	r5, r7, r4
    d508:	e59b0000 	ldr	r0, [fp]
    d50c:	e1a02005 	mov	r2, r5
    d510:	eb000654 	bl	ee68 <_realloc_r>
    d514:	e3500000 	cmp	r0, #0	; 0x0
    d518:	0a00000d 	beq	d554 <__sfvwrite+0x3e4>
    d51c:	e0803004 	add	r3, r0, r4
    d520:	e1a02007 	mov	r2, r7
    d524:	e1a04007 	mov	r4, r7
    d528:	e5863000 	str	r3, [r6]
    d52c:	e5865014 	str	r5, [r6, #20]
    d530:	e5860010 	str	r0, [r6, #16]
    d534:	e5867008 	str	r7, [r6, #8]
    d538:	eaffffa5 	b	d3d4 <__sfvwrite+0x264>
    d53c:	ebfff6ef 	bl	b100 <__swsetup>
    d540:	e3500000 	cmp	r0, #0	; 0x0
    d544:	13e00000 	mvnne	r0, #0	; 0x0
    d548:	1affff2d 	bne	d204 <__sfvwrite+0x94>
    d54c:	e1d610bc 	ldrh	r1, [r6, #12]
    d550:	eaffff13 	b	d1a4 <__sfvwrite+0x34>
    d554:	e59b0000 	ldr	r0, [fp]
    d558:	e5961010 	ldr	r1, [r6, #16]
    d55c:	ebfffe5b 	bl	ced0 <_free_r>
    d560:	eaffff7d 	b	d35c <__sfvwrite+0x1ec>
    d564:	00010c00 	andeq	r0, r1, r0, lsl #24

0000d568 <_fwalk_reent>:
    d568:	e92d47f0 	stmdb	sp!, {r4, r5, r6, r7, r8, r9, sl, lr}
    d56c:	e1a08000 	mov	r8, r0
    d570:	e1a0a001 	mov	sl, r1
    d574:	ebfffd92 	bl	cbc4 <__sfp_lock_acquire>
    d578:	e2987e2e 	adds	r7, r8, #736	; 0x2e0
    d57c:	01a09007 	moveq	r9, r7
    d580:	0a000017 	beq	d5e4 <_fwalk_reent+0x7c>
    d584:	e3a09000 	mov	r9, #0	; 0x0
    d588:	e5976004 	ldr	r6, [r7, #4]
    d58c:	e3560001 	cmp	r6, #1	; 0x1
    d590:	e5974008 	ldr	r4, [r7, #8]
    d594:	4a00000f 	bmi	d5d8 <_fwalk_reent+0x70>
    d598:	e3a05000 	mov	r5, #0	; 0x0
    d59c:	e1d430fc 	ldrsh	r3, [r4, #12]
    d5a0:	e3530000 	cmp	r3, #0	; 0x0
    d5a4:	e2855001 	add	r5, r5, #1	; 0x1
    d5a8:	0a000007 	beq	d5cc <_fwalk_reent+0x64>
    d5ac:	e1d430fe 	ldrsh	r3, [r4, #14]
    d5b0:	e3730001 	cmn	r3, #1	; 0x1
    d5b4:	e1a01004 	mov	r1, r4
    d5b8:	e1a00008 	mov	r0, r8
    d5bc:	0a000002 	beq	d5cc <_fwalk_reent+0x64>
    d5c0:	e1a0e00f 	mov	lr, pc
    d5c4:	e12fff1a 	bx	sl
    d5c8:	e1899000 	orr	r9, r9, r0
    d5cc:	e1560005 	cmp	r6, r5
    d5d0:	e284405c 	add	r4, r4, #92	; 0x5c
    d5d4:	1afffff0 	bne	d59c <_fwalk_reent+0x34>
    d5d8:	e5977000 	ldr	r7, [r7]
    d5dc:	e3570000 	cmp	r7, #0	; 0x0
    d5e0:	1affffe8 	bne	d588 <_fwalk_reent+0x20>
    d5e4:	ebfffd77 	bl	cbc8 <__sfp_lock_release>
    d5e8:	e1a00009 	mov	r0, r9
    d5ec:	e8bd87f0 	ldmia	sp!, {r4, r5, r6, r7, r8, r9, sl, pc}

0000d5f0 <_fwalk>:
    d5f0:	e92d45f0 	stmdb	sp!, {r4, r5, r6, r7, r8, sl, lr}
    d5f4:	e1a04000 	mov	r4, r0
    d5f8:	e1a08001 	mov	r8, r1
    d5fc:	ebfffd70 	bl	cbc4 <__sfp_lock_acquire>
    d600:	e2947e2e 	adds	r7, r4, #736	; 0x2e0
    d604:	01a0a007 	moveq	sl, r7
    d608:	0a000016 	beq	d668 <_fwalk+0x78>
    d60c:	e3a0a000 	mov	sl, #0	; 0x0
    d610:	e5976004 	ldr	r6, [r7, #4]
    d614:	e3560001 	cmp	r6, #1	; 0x1
    d618:	e5974008 	ldr	r4, [r7, #8]
    d61c:	4a00000e 	bmi	d65c <_fwalk+0x6c>
    d620:	e3a05000 	mov	r5, #0	; 0x0
    d624:	e1d430fc 	ldrsh	r3, [r4, #12]
    d628:	e3530000 	cmp	r3, #0	; 0x0
    d62c:	e2855001 	add	r5, r5, #1	; 0x1
    d630:	0a000006 	beq	d650 <_fwalk+0x60>
    d634:	e1d430fe 	ldrsh	r3, [r4, #14]
    d638:	e3730001 	cmn	r3, #1	; 0x1
    d63c:	e1a00004 	mov	r0, r4
    d640:	0a000002 	beq	d650 <_fwalk+0x60>
    d644:	e1a0e00f 	mov	lr, pc
    d648:	e12fff18 	bx	r8
    d64c:	e18aa000 	orr	sl, sl, r0
    d650:	e1560005 	cmp	r6, r5
    d654:	e284405c 	add	r4, r4, #92	; 0x5c
    d658:	1afffff1 	bne	d624 <_fwalk+0x34>
    d65c:	e5977000 	ldr	r7, [r7]
    d660:	e3570000 	cmp	r7, #0	; 0x0
    d664:	1affffe9 	bne	d610 <_fwalk+0x20>
    d668:	ebfffd56 	bl	cbc8 <__sfp_lock_release>
    d66c:	e1a0000a 	mov	r0, sl
    d670:	e8bd85f0 	ldmia	sp!, {r4, r5, r6, r7, r8, sl, pc}

0000d674 <__locale_charset>:
    d674:	e59f3004 	ldr	r3, [pc, #4]	; d680 <.text+0x5660>
    d678:	e5930000 	ldr	r0, [r3]
    d67c:	e12fff1e 	bx	lr
    d680:	00010874 	andeq	r0, r1, r4, ror r8

0000d684 <_localeconv_r>:
    d684:	e59f0000 	ldr	r0, [pc, #0]	; d68c <.text+0x566c>
    d688:	e12fff1e 	bx	lr
    d68c:	00010844 	andeq	r0, r1, r4, asr #16

0000d690 <localeconv>:
    d690:	e59f3004 	ldr	r3, [pc, #4]	; d69c <.text+0x567c>
    d694:	e5930000 	ldr	r0, [r3]
    d698:	eafffff9 	b	d684 <_localeconv_r>
    d69c:	00010c00 	andeq	r0, r1, r0, lsl #24

0000d6a0 <_setlocale_r>:
    d6a0:	e59f3054 	ldr	r3, [pc, #84]	; d6fc <.text+0x56dc>
    d6a4:	e92d4070 	stmdb	sp!, {r4, r5, r6, lr}
    d6a8:	e2524000 	subs	r4, r2, #0	; 0x0
    d6ac:	e1a05000 	mov	r5, r0
    d6b0:	e1a06001 	mov	r6, r1
    d6b4:	e1a00004 	mov	r0, r4
    d6b8:	e1a01003 	mov	r1, r3
    d6bc:	0a000007 	beq	d6e0 <_setlocale_r+0x40>
    d6c0:	eb0007df 	bl	f644 <strcmp>
    d6c4:	e3500000 	cmp	r0, #0	; 0x0
    d6c8:	e59f1030 	ldr	r1, [pc, #48]	; d700 <.text+0x56e0>
    d6cc:	e1a00004 	mov	r0, r4
    d6d0:	1a000004 	bne	d6e8 <_setlocale_r+0x48>
    d6d4:	e5854034 	str	r4, [r5, #52]
    d6d8:	e5856030 	str	r6, [r5, #48]
    d6dc:	e59f3018 	ldr	r3, [pc, #24]	; d6fc <.text+0x56dc>
    d6e0:	e1a00003 	mov	r0, r3
    d6e4:	e8bd8070 	ldmia	sp!, {r4, r5, r6, pc}
    d6e8:	eb0007d5 	bl	f644 <strcmp>
    d6ec:	e3500000 	cmp	r0, #0	; 0x0
    d6f0:	e3a03000 	mov	r3, #0	; 0x0
    d6f4:	0afffff6 	beq	d6d4 <_setlocale_r+0x34>
    d6f8:	eafffff8 	b	d6e0 <_setlocale_r+0x40>
    d6fc:	0001077c 	andeq	r0, r1, ip, ror r7
    d700:	000107b4 	streqh	r0, [r1], -r4

0000d704 <setlocale>:
    d704:	e1a02001 	mov	r2, r1
    d708:	e59f100c 	ldr	r1, [pc, #12]	; d71c <.text+0x56fc>
    d70c:	e1a03000 	mov	r3, r0
    d710:	e5910000 	ldr	r0, [r1]
    d714:	e1a01003 	mov	r1, r3
    d718:	eaffffe0 	b	d6a0 <_setlocale_r>
    d71c:	00010c00 	andeq	r0, r1, r0, lsl #24

0000d720 <__smakebuf>:
    d720:	e92d4070 	stmdb	sp!, {r4, r5, r6, lr}
    d724:	e1d030bc 	ldrh	r3, [r0, #12]
    d728:	e3130002 	tst	r3, #2	; 0x2
    d72c:	12802043 	addne	r2, r0, #67	; 0x43
    d730:	13a03001 	movne	r3, #1	; 0x1
    d734:	e24dd03c 	sub	sp, sp, #60	; 0x3c
    d738:	e1a04000 	mov	r4, r0
    d73c:	15803014 	strne	r3, [r0, #20]
    d740:	15802010 	strne	r2, [r0, #16]
    d744:	15802000 	strne	r2, [r0]
    d748:	1a000025 	bne	d7e4 <__smakebuf+0xc4>
    d74c:	e1d010fe 	ldrsh	r1, [r0, #14]
    d750:	e3510000 	cmp	r1, #0	; 0x0
    d754:	ba000024 	blt	d7ec <__smakebuf+0xcc>
    d758:	e59f5108 	ldr	r5, [pc, #264]	; d868 <.text+0x5848>
    d75c:	e1a0200d 	mov	r2, sp
    d760:	e5950000 	ldr	r0, [r5]
    d764:	eb00089e 	bl	f9e4 <_fstat_r>
    d768:	e3500000 	cmp	r0, #0	; 0x0
    d76c:	b1d430bc 	ldrlth	r3, [r4, #12]
    d770:	ba00001e 	blt	d7f0 <__smakebuf+0xd0>
    d774:	e59d3004 	ldr	r3, [sp, #4]
    d778:	e2033a0f 	and	r3, r3, #61440	; 0xf000
    d77c:	e3530a02 	cmp	r3, #8192	; 0x2000
    d780:	13a06000 	movne	r6, #0	; 0x0
    d784:	03a06001 	moveq	r6, #1	; 0x1
    d788:	e3530902 	cmp	r3, #32768	; 0x8000
    d78c:	0a000022 	beq	d81c <__smakebuf+0xfc>
    d790:	e1d430bc 	ldrh	r3, [r4, #12]
    d794:	e3833b02 	orr	r3, r3, #2048	; 0x800
    d798:	e1c430bc 	strh	r3, [r4, #12]
    d79c:	e5950000 	ldr	r0, [r5]
    d7a0:	e3a01b01 	mov	r1, #1024	; 0x400
    d7a4:	eb00003c 	bl	d89c <_malloc_r>
    d7a8:	e3500000 	cmp	r0, #0	; 0x0
    d7ac:	0a000024 	beq	d844 <__smakebuf+0x124>
    d7b0:	e59f30b0 	ldr	r3, [pc, #176]	; d868 <.text+0x5848>
    d7b4:	e1d420bc 	ldrh	r2, [r4, #12]
    d7b8:	e5931000 	ldr	r1, [r3]
    d7bc:	e59f30a8 	ldr	r3, [pc, #168]	; d86c <.text+0x584c>
    d7c0:	e3822080 	orr	r2, r2, #128	; 0x80
    d7c4:	e581303c 	str	r3, [r1, #60]
    d7c8:	e3560000 	cmp	r6, #0	; 0x0
    d7cc:	e3a03b01 	mov	r3, #1024	; 0x400
    d7d0:	e1c420bc 	strh	r2, [r4, #12]
    d7d4:	e5840010 	str	r0, [r4, #16]
    d7d8:	e5843014 	str	r3, [r4, #20]
    d7dc:	e5840000 	str	r0, [r4]
    d7e0:	1a000006 	bne	d800 <__smakebuf+0xe0>
    d7e4:	e28dd03c 	add	sp, sp, #60	; 0x3c
    d7e8:	e8bd8070 	ldmia	sp!, {r4, r5, r6, pc}
    d7ec:	e59f5074 	ldr	r5, [pc, #116]	; d868 <.text+0x5848>
    d7f0:	e3833b02 	orr	r3, r3, #2048	; 0x800
    d7f4:	e3a06000 	mov	r6, #0	; 0x0
    d7f8:	e1c430bc 	strh	r3, [r4, #12]
    d7fc:	eaffffe6 	b	d79c <__smakebuf+0x7c>
    d800:	e1d400fe 	ldrsh	r0, [r4, #14]
    d804:	ebffeb26 	bl	84a4 <isatty>
    d808:	e3500000 	cmp	r0, #0	; 0x0
    d80c:	11d430bc 	ldrneh	r3, [r4, #12]
    d810:	13833001 	orrne	r3, r3, #1	; 0x1
    d814:	11c430bc 	strneh	r3, [r4, #12]
    d818:	eafffff1 	b	d7e4 <__smakebuf+0xc4>
    d81c:	e5942028 	ldr	r2, [r4, #40]
    d820:	e59f3048 	ldr	r3, [pc, #72]	; d870 <.text+0x5850>
    d824:	e1520003 	cmp	r2, r3
    d828:	1affffd8 	bne	d790 <__smakebuf+0x70>
    d82c:	e1d430bc 	ldrh	r3, [r4, #12]
    d830:	e3a02b01 	mov	r2, #1024	; 0x400
    d834:	e3833b01 	orr	r3, r3, #1024	; 0x400
    d838:	e1c430bc 	strh	r3, [r4, #12]
    d83c:	e584204c 	str	r2, [r4, #76]
    d840:	eaffffd5 	b	d79c <__smakebuf+0x7c>
    d844:	e1d430bc 	ldrh	r3, [r4, #12]
    d848:	e2841043 	add	r1, r4, #67	; 0x43
    d84c:	e3833002 	orr	r3, r3, #2	; 0x2
    d850:	e3a02001 	mov	r2, #1	; 0x1
    d854:	e5842014 	str	r2, [r4, #20]
    d858:	e1c430bc 	strh	r3, [r4, #12]
    d85c:	e5841010 	str	r1, [r4, #16]
    d860:	e5841000 	str	r1, [r4]
    d864:	eaffffde 	b	d7e4 <__smakebuf+0xc4>
    d868:	00010c00 	andeq	r0, r1, r0, lsl #24
    d86c:	0000cc8c 	andeq	ip, r0, ip, lsl #25
    d870:	0000f558 	andeq	pc, r0, r8, asr r5

0000d874 <free>:
    d874:	e59f3008 	ldr	r3, [pc, #8]	; d884 <.text+0x5864>
    d878:	e1a01000 	mov	r1, r0
    d87c:	e5930000 	ldr	r0, [r3]
    d880:	eafffd92 	b	ced0 <_free_r>
    d884:	00010c00 	andeq	r0, r1, r0, lsl #24

0000d888 <malloc>:
    d888:	e59f3008 	ldr	r3, [pc, #8]	; d898 <.text+0x5878>
    d88c:	e1a01000 	mov	r1, r0
    d890:	e5930000 	ldr	r0, [r3]
    d894:	ea000000 	b	d89c <_malloc_r>
    d898:	00010c00 	andeq	r0, r1, r0, lsl #24

0000d89c <_malloc_r>:
    d89c:	e281300b 	add	r3, r1, #11	; 0xb
    d8a0:	e3530016 	cmp	r3, #22	; 0x16
    d8a4:	e92d4ff0 	stmdb	sp!, {r4, r5, r6, r7, r8, r9, sl, fp, lr}
    d8a8:	83c35007 	bichi	r5, r3, #7	; 0x7
    d8ac:	93a05010 	movls	r5, #16	; 0x10
    d8b0:	93a03000 	movls	r3, #0	; 0x0
    d8b4:	81a03fa5 	movhi	r3, r5, lsr #31
    d8b8:	e1550001 	cmp	r5, r1
    d8bc:	33833001 	orrcc	r3, r3, #1	; 0x1
    d8c0:	e3530000 	cmp	r3, #0	; 0x0
    d8c4:	e1a07000 	mov	r7, r0
    d8c8:	13a0300c 	movne	r3, #12	; 0xc
    d8cc:	e24dd004 	sub	sp, sp, #4	; 0x4
    d8d0:	13a00000 	movne	r0, #0	; 0x0
    d8d4:	15873000 	strne	r3, [r7]
    d8d8:	1a000017 	bne	d93c <_malloc_r+0xa0>
    d8dc:	e1a00007 	mov	r0, r7
    d8e0:	eb00026e 	bl	e2a0 <__malloc_lock>
    d8e4:	e3550f7e 	cmp	r5, #504	; 0x1f8
    d8e8:	2a000015 	bcs	d944 <_malloc_r+0xa8>
    d8ec:	e59f86fc 	ldr	r8, [pc, #1788]	; dff0 <.text+0x5fd0>
    d8f0:	e1a021a5 	mov	r2, r5, lsr #3
    d8f4:	e0883182 	add	r3, r8, r2, lsl #3
    d8f8:	e593400c 	ldr	r4, [r3, #12]
    d8fc:	e1530004 	cmp	r3, r4
    d900:	e1a0a008 	mov	sl, r8
    d904:	0a0000cd 	beq	dc40 <_malloc_r+0x3a4>
    d908:	e5943004 	ldr	r3, [r4, #4]
    d90c:	e3c33003 	bic	r3, r3, #3	; 0x3
    d910:	e0843003 	add	r3, r4, r3
    d914:	e5932004 	ldr	r2, [r3, #4]
    d918:	e594000c 	ldr	r0, [r4, #12]
    d91c:	e5941008 	ldr	r1, [r4, #8]
    d920:	e3822001 	orr	r2, r2, #1	; 0x1
    d924:	e5801008 	str	r1, [r0, #8]
    d928:	e581000c 	str	r0, [r1, #12]
    d92c:	e5832004 	str	r2, [r3, #4]
    d930:	e1a00007 	mov	r0, r7
    d934:	eb00025a 	bl	e2a4 <__malloc_unlock>
    d938:	e2840008 	add	r0, r4, #8	; 0x8
    d93c:	e28dd004 	add	sp, sp, #4	; 0x4
    d940:	e8bd8ff0 	ldmia	sp!, {r4, r5, r6, r7, r8, r9, sl, fp, pc}
    d944:	e1b024a5 	movs	r2, r5, lsr #9
    d948:	01a001a5 	moveq	r0, r5, lsr #3
    d94c:	01a03180 	moveq	r3, r0, lsl #3
    d950:	1a000027 	bne	d9f4 <_malloc_r+0x158>
    d954:	e59f8694 	ldr	r8, [pc, #1684]	; dff0 <.text+0x5fd0>
    d958:	e0831008 	add	r1, r3, r8
    d95c:	e591400c 	ldr	r4, [r1, #12]
    d960:	e1510004 	cmp	r1, r4
    d964:	e1a0a008 	mov	sl, r8
    d968:	1a000005 	bne	d984 <_malloc_r+0xe8>
    d96c:	ea00000a 	b	d99c <_malloc_r+0x100>
    d970:	e3520000 	cmp	r2, #0	; 0x0
    d974:	aa000047 	bge	da98 <_malloc_r+0x1fc>
    d978:	e594400c 	ldr	r4, [r4, #12]
    d97c:	e1510004 	cmp	r1, r4
    d980:	0a000005 	beq	d99c <_malloc_r+0x100>
    d984:	e5943004 	ldr	r3, [r4, #4]
    d988:	e3c33003 	bic	r3, r3, #3	; 0x3
    d98c:	e0652003 	rsb	r2, r5, r3
    d990:	e352000f 	cmp	r2, #15	; 0xf
    d994:	dafffff5 	ble	d970 <_malloc_r+0xd4>
    d998:	e2400001 	sub	r0, r0, #1	; 0x1
    d99c:	e280e001 	add	lr, r0, #1	; 0x1
    d9a0:	e59f664c 	ldr	r6, [pc, #1612]	; dff4 <.text+0x5fd4>
    d9a4:	e5964008 	ldr	r4, [r6, #8]
    d9a8:	e1560004 	cmp	r6, r4
    d9ac:	0a000076 	beq	db8c <_malloc_r+0x2f0>
    d9b0:	e5943004 	ldr	r3, [r4, #4]
    d9b4:	e3c32003 	bic	r2, r3, #3	; 0x3
    d9b8:	e0650002 	rsb	r0, r5, r2
    d9bc:	e350000f 	cmp	r0, #15	; 0xf
    d9c0:	ca000027 	bgt	da64 <_malloc_r+0x1c8>
    d9c4:	e3500000 	cmp	r0, #0	; 0x0
    d9c8:	e586600c 	str	r6, [r6, #12]
    d9cc:	e5866008 	str	r6, [r6, #8]
    d9d0:	ba00003c 	blt	dac8 <_malloc_r+0x22c>
    d9d4:	e0842002 	add	r2, r4, r2
    d9d8:	e5923004 	ldr	r3, [r2, #4]
    d9dc:	e3833001 	orr	r3, r3, #1	; 0x1
    d9e0:	e1a00007 	mov	r0, r7
    d9e4:	e5823004 	str	r3, [r2, #4]
    d9e8:	eb00022d 	bl	e2a4 <__malloc_unlock>
    d9ec:	e2840008 	add	r0, r4, #8	; 0x8
    d9f0:	eaffffd1 	b	d93c <_malloc_r+0xa0>
    d9f4:	e3520004 	cmp	r2, #4	; 0x4
    d9f8:	91a03325 	movls	r3, r5, lsr #6
    d9fc:	92830038 	addls	r0, r3, #56	; 0x38
    da00:	91a03180 	movls	r3, r0, lsl #3
    da04:	9affffd2 	bls	d954 <_malloc_r+0xb8>
    da08:	e3520014 	cmp	r2, #20	; 0x14
    da0c:	9282005b 	addls	r0, r2, #91	; 0x5b
    da10:	91a03180 	movls	r3, r0, lsl #3
    da14:	9affffce 	bls	d954 <_malloc_r+0xb8>
    da18:	e3520054 	cmp	r2, #84	; 0x54
    da1c:	91a03625 	movls	r3, r5, lsr #12
    da20:	9283006e 	addls	r0, r3, #110	; 0x6e
    da24:	91a03180 	movls	r3, r0, lsl #3
    da28:	9affffc9 	bls	d954 <_malloc_r+0xb8>
    da2c:	e3520f55 	cmp	r2, #340	; 0x154
    da30:	91a037a5 	movls	r3, r5, lsr #15
    da34:	92830077 	addls	r0, r3, #119	; 0x77
    da38:	91a03180 	movls	r3, r0, lsl #3
    da3c:	9affffc4 	bls	d954 <_malloc_r+0xb8>
    da40:	e3a03e55 	mov	r3, #1360	; 0x550
    da44:	e2833004 	add	r3, r3, #4	; 0x4
    da48:	e1520003 	cmp	r2, r3
    da4c:	91a03925 	movls	r3, r5, lsr #18
    da50:	9283007c 	addls	r0, r3, #124	; 0x7c
    da54:	83a0007e 	movhi	r0, #126	; 0x7e
    da58:	82433f59 	subhi	r3, r3, #356	; 0x164
    da5c:	91a03180 	movls	r3, r0, lsl #3
    da60:	eaffffbb 	b	d954 <_malloc_r+0xb8>
    da64:	e0842005 	add	r2, r4, r5
    da68:	e3801001 	orr	r1, r0, #1	; 0x1
    da6c:	e3853001 	orr	r3, r5, #1	; 0x1
    da70:	e7820000 	str	r0, [r2, r0]
    da74:	e5843004 	str	r3, [r4, #4]
    da78:	e586200c 	str	r2, [r6, #12]
    da7c:	e5862008 	str	r2, [r6, #8]
    da80:	e1a00007 	mov	r0, r7
    da84:	e9820042 	stmib	r2, {r1, r6}
    da88:	e582600c 	str	r6, [r2, #12]
    da8c:	eb000204 	bl	e2a4 <__malloc_unlock>
    da90:	e2840008 	add	r0, r4, #8	; 0x8
    da94:	eaffffa8 	b	d93c <_malloc_r+0xa0>
    da98:	e0840003 	add	r0, r4, r3
    da9c:	e5903004 	ldr	r3, [r0, #4]
    daa0:	e594100c 	ldr	r1, [r4, #12]
    daa4:	e5942008 	ldr	r2, [r4, #8]
    daa8:	e3833001 	orr	r3, r3, #1	; 0x1
    daac:	e5803004 	str	r3, [r0, #4]
    dab0:	e5812008 	str	r2, [r1, #8]
    dab4:	e1a00007 	mov	r0, r7
    dab8:	e582100c 	str	r1, [r2, #12]
    dabc:	eb0001f8 	bl	e2a4 <__malloc_unlock>
    dac0:	e2840008 	add	r0, r4, #8	; 0x8
    dac4:	eaffff9c 	b	d93c <_malloc_r+0xa0>
    dac8:	e3520c02 	cmp	r2, #512	; 0x200
    dacc:	3a0000a0 	bcc	dd54 <_malloc_r+0x4b8>
    dad0:	e1b014a2 	movs	r1, r2, lsr #9
    dad4:	01a011a2 	moveq	r1, r2, lsr #3
    dad8:	01a03181 	moveq	r3, r1, lsl #3
    dadc:	0a00001a 	beq	db4c <_malloc_r+0x2b0>
    dae0:	e3510004 	cmp	r1, #4	; 0x4
    dae4:	91a03322 	movls	r3, r2, lsr #6
    dae8:	92831038 	addls	r1, r3, #56	; 0x38
    daec:	91a03181 	movls	r3, r1, lsl #3
    daf0:	9a000015 	bls	db4c <_malloc_r+0x2b0>
    daf4:	e3510014 	cmp	r1, #20	; 0x14
    daf8:	9281105b 	addls	r1, r1, #91	; 0x5b
    dafc:	91a03181 	movls	r3, r1, lsl #3
    db00:	9a000011 	bls	db4c <_malloc_r+0x2b0>
    db04:	e3510054 	cmp	r1, #84	; 0x54
    db08:	91a03622 	movls	r3, r2, lsr #12
    db0c:	9283106e 	addls	r1, r3, #110	; 0x6e
    db10:	91a03181 	movls	r3, r1, lsl #3
    db14:	9a00000c 	bls	db4c <_malloc_r+0x2b0>
    db18:	e3510f55 	cmp	r1, #340	; 0x154
    db1c:	91a037a2 	movls	r3, r2, lsr #15
    db20:	92831077 	addls	r1, r3, #119	; 0x77
    db24:	91a03181 	movls	r3, r1, lsl #3
    db28:	9a000007 	bls	db4c <_malloc_r+0x2b0>
    db2c:	e3a03e55 	mov	r3, #1360	; 0x550
    db30:	e2833004 	add	r3, r3, #4	; 0x4
    db34:	e1510003 	cmp	r1, r3
    db38:	91a03922 	movls	r3, r2, lsr #18
    db3c:	9283107c 	addls	r1, r3, #124	; 0x7c
    db40:	83a0107e 	movhi	r1, #126	; 0x7e
    db44:	82433f59 	subhi	r3, r3, #356	; 0x164
    db48:	91a03181 	movls	r3, r1, lsl #3
    db4c:	e088c003 	add	ip, r8, r3
    db50:	e59c0008 	ldr	r0, [ip, #8]
    db54:	e15c0000 	cmp	ip, r0
    db58:	0a0000eb 	beq	df0c <_malloc_r+0x670>
    db5c:	e5903004 	ldr	r3, [r0, #4]
    db60:	e3c33003 	bic	r3, r3, #3	; 0x3
    db64:	e1520003 	cmp	r2, r3
    db68:	2a000002 	bcs	db78 <_malloc_r+0x2dc>
    db6c:	e5900008 	ldr	r0, [r0, #8]
    db70:	e15c0000 	cmp	ip, r0
    db74:	1afffff8 	bne	db5c <_malloc_r+0x2c0>
    db78:	e590c00c 	ldr	ip, [r0, #12]
    db7c:	e584c00c 	str	ip, [r4, #12]
    db80:	e5840008 	str	r0, [r4, #8]
    db84:	e580400c 	str	r4, [r0, #12]
    db88:	e58c4008 	str	r4, [ip, #8]
    db8c:	e59a0004 	ldr	r0, [sl, #4]
    db90:	e35e0000 	cmp	lr, #0	; 0x0
    db94:	e28e3003 	add	r3, lr, #3	; 0x3
    db98:	a1a0300e 	movge	r3, lr
    db9c:	e1a03143 	mov	r3, r3, asr #2
    dba0:	e3a02001 	mov	r2, #1	; 0x1
    dba4:	e1a02312 	mov	r2, r2, lsl r3
    dba8:	e1520000 	cmp	r2, r0
    dbac:	8a000029 	bhi	dc58 <_malloc_r+0x3bc>
    dbb0:	e1120000 	tst	r2, r0
    dbb4:	0a000073 	beq	dd88 <_malloc_r+0x4ec>
    dbb8:	e088918e 	add	r9, r8, lr, lsl #3
    dbbc:	e1a0a00e 	mov	sl, lr
    dbc0:	e1a01009 	mov	r1, r9
    dbc4:	e591400c 	ldr	r4, [r1, #12]
    dbc8:	e1510004 	cmp	r1, r4
    dbcc:	1a000005 	bne	dbe8 <_malloc_r+0x34c>
    dbd0:	ea000076 	b	ddb0 <_malloc_r+0x514>
    dbd4:	e35c0000 	cmp	ip, #0	; 0x0
    dbd8:	aa000079 	bge	ddc4 <_malloc_r+0x528>
    dbdc:	e594400c 	ldr	r4, [r4, #12]
    dbe0:	e1510004 	cmp	r1, r4
    dbe4:	0a000071 	beq	ddb0 <_malloc_r+0x514>
    dbe8:	e5943004 	ldr	r3, [r4, #4]
    dbec:	e3c33003 	bic	r3, r3, #3	; 0x3
    dbf0:	e065c003 	rsb	ip, r5, r3
    dbf4:	e35c000f 	cmp	ip, #15	; 0xf
    dbf8:	dafffff5 	ble	dbd4 <_malloc_r+0x338>
    dbfc:	e3853001 	orr	r3, r5, #1	; 0x1
    dc00:	e0842005 	add	r2, r4, r5
    dc04:	e594000c 	ldr	r0, [r4, #12]
    dc08:	e5843004 	str	r3, [r4, #4]
    dc0c:	e5b41008 	ldr	r1, [r4, #8]!
    dc10:	e38c3001 	orr	r3, ip, #1	; 0x1
    dc14:	e5801008 	str	r1, [r0, #8]
    dc18:	e581000c 	str	r0, [r1, #12]
    dc1c:	e5862008 	str	r2, [r6, #8]
    dc20:	e586200c 	str	r2, [r6, #12]
    dc24:	e1a00007 	mov	r0, r7
    dc28:	e782c00c 	str	ip, [r2, ip]
    dc2c:	e9820048 	stmib	r2, {r3, r6}
    dc30:	e582600c 	str	r6, [r2, #12]
    dc34:	eb00019a 	bl	e2a4 <__malloc_unlock>
    dc38:	e1a00004 	mov	r0, r4
    dc3c:	eaffff3e 	b	d93c <_malloc_r+0xa0>
    dc40:	e2843008 	add	r3, r4, #8	; 0x8
    dc44:	e593400c 	ldr	r4, [r3, #12]
    dc48:	e1530004 	cmp	r3, r4
    dc4c:	1affff2d 	bne	d908 <_malloc_r+0x6c>
    dc50:	e282e002 	add	lr, r2, #2	; 0x2
    dc54:	eaffff51 	b	d9a0 <_malloc_r+0x104>
    dc58:	e59f2390 	ldr	r2, [pc, #912]	; dff0 <.text+0x5fd0>
    dc5c:	e5924008 	ldr	r4, [r2, #8]
    dc60:	e5943004 	ldr	r3, [r4, #4]
    dc64:	e3c38003 	bic	r8, r3, #3	; 0x3
    dc68:	e0650008 	rsb	r0, r5, r8
    dc6c:	e350000f 	cmp	r0, #15	; 0xf
    dc70:	c3a03000 	movgt	r3, #0	; 0x0
    dc74:	d3a03001 	movle	r3, #1	; 0x1
    dc78:	e1550008 	cmp	r5, r8
    dc7c:	83833001 	orrhi	r3, r3, #1	; 0x1
    dc80:	e3530000 	cmp	r3, #0	; 0x0
    dc84:	e1a09004 	mov	r9, r4
    dc88:	0a000026 	beq	dd28 <_malloc_r+0x48c>
    dc8c:	e59f3364 	ldr	r3, [pc, #868]	; dff8 <.text+0x5fd8>
    dc90:	e59fb364 	ldr	fp, [pc, #868]	; dffc <.text+0x5fdc>
    dc94:	e5932000 	ldr	r2, [r3]
    dc98:	e59b1000 	ldr	r1, [fp]
    dc9c:	e2822010 	add	r2, r2, #16	; 0x10
    dca0:	e3710001 	cmn	r1, #1	; 0x1
    dca4:	e0856002 	add	r6, r5, r2
    dca8:	12863eff 	addne	r3, r6, #4080	; 0xff0
    dcac:	1283300f 	addne	r3, r3, #15	; 0xf
    dcb0:	13c36eff 	bicne	r6, r3, #4080	; 0xff0
    dcb4:	13c6600f 	bicne	r6, r6, #15	; 0xf
    dcb8:	e1a00007 	mov	r0, r7
    dcbc:	e1a01006 	mov	r1, r6
    dcc0:	eb000611 	bl	f50c <_sbrk_r>
    dcc4:	e3700001 	cmn	r0, #1	; 0x1
    dcc8:	0a00008c 	beq	df00 <_malloc_r+0x664>
    dccc:	e0841008 	add	r1, r4, r8
    dcd0:	e1510000 	cmp	r1, r0
    dcd4:	e1a0a000 	mov	sl, r0
    dcd8:	9a000045 	bls	ddf4 <_malloc_r+0x558>
    dcdc:	e59f330c 	ldr	r3, [pc, #780]	; dff0 <.text+0x5fd0>
    dce0:	e1540003 	cmp	r4, r3
    dce4:	0a0000a5 	beq	df80 <_malloc_r+0x6e4>
    dce8:	e59f3300 	ldr	r3, [pc, #768]	; dff0 <.text+0x5fd0>
    dcec:	e5934008 	ldr	r4, [r3, #8]
    dcf0:	e5942004 	ldr	r2, [r4, #4]
    dcf4:	e3c22003 	bic	r2, r2, #3	; 0x3
    dcf8:	e0650002 	rsb	r0, r5, r2
    dcfc:	e350000f 	cmp	r0, #15	; 0xf
    dd00:	c3a03000 	movgt	r3, #0	; 0x0
    dd04:	d3a03001 	movle	r3, #1	; 0x1
    dd08:	e1550002 	cmp	r5, r2
    dd0c:	83833001 	orrhi	r3, r3, #1	; 0x1
    dd10:	e3530000 	cmp	r3, #0	; 0x0
    dd14:	0a000003 	beq	dd28 <_malloc_r+0x48c>
    dd18:	e1a00007 	mov	r0, r7
    dd1c:	eb000160 	bl	e2a4 <__malloc_unlock>
    dd20:	e3a00000 	mov	r0, #0	; 0x0
    dd24:	eaffff04 	b	d93c <_malloc_r+0xa0>
    dd28:	e0841005 	add	r1, r4, r5
    dd2c:	e3802001 	orr	r2, r0, #1	; 0x1
    dd30:	e3853001 	orr	r3, r5, #1	; 0x1
    dd34:	e5843004 	str	r3, [r4, #4]
    dd38:	e5812004 	str	r2, [r1, #4]
    dd3c:	e59f22ac 	ldr	r2, [pc, #684]	; dff0 <.text+0x5fd0>
    dd40:	e1a00007 	mov	r0, r7
    dd44:	e5821008 	str	r1, [r2, #8]
    dd48:	eb000155 	bl	e2a4 <__malloc_unlock>
    dd4c:	e2840008 	add	r0, r4, #8	; 0x8
    dd50:	eafffef9 	b	d93c <_malloc_r+0xa0>
    dd54:	e1a021a2 	mov	r2, r2, lsr #3
    dd58:	e59a0004 	ldr	r0, [sl, #4]
    dd5c:	e1a01122 	mov	r1, r2, lsr #2
    dd60:	e3a03001 	mov	r3, #1	; 0x1
    dd64:	e1800113 	orr	r0, r0, r3, lsl r1
    dd68:	e0882182 	add	r2, r8, r2, lsl #3
    dd6c:	e5923008 	ldr	r3, [r2, #8]
    dd70:	e584200c 	str	r2, [r4, #12]
    dd74:	e5843008 	str	r3, [r4, #8]
    dd78:	e58a0004 	str	r0, [sl, #4]
    dd7c:	e583400c 	str	r4, [r3, #12]
    dd80:	e5824008 	str	r4, [r2, #8]
    dd84:	eaffff81 	b	db90 <_malloc_r+0x2f4>
    dd88:	e1a02082 	mov	r2, r2, lsl #1
    dd8c:	e3ce3003 	bic	r3, lr, #3	; 0x3
    dd90:	e1100002 	tst	r0, r2
    dd94:	e283e004 	add	lr, r3, #4	; 0x4
    dd98:	1affff86 	bne	dbb8 <_malloc_r+0x31c>
    dd9c:	e1a02082 	mov	r2, r2, lsl #1
    dda0:	e1100002 	tst	r0, r2
    dda4:	e28ee004 	add	lr, lr, #4	; 0x4
    dda8:	0afffffb 	beq	dd9c <_malloc_r+0x500>
    ddac:	eaffff81 	b	dbb8 <_malloc_r+0x31c>
    ddb0:	e28aa001 	add	sl, sl, #1	; 0x1
    ddb4:	e31a0003 	tst	sl, #3	; 0x3
    ddb8:	0a000059 	beq	df24 <_malloc_r+0x688>
    ddbc:	e2811008 	add	r1, r1, #8	; 0x8
    ddc0:	eaffff7f 	b	dbc4 <_malloc_r+0x328>
    ddc4:	e0841003 	add	r1, r4, r3
    ddc8:	e5913004 	ldr	r3, [r1, #4]
    ddcc:	e594000c 	ldr	r0, [r4, #12]
    ddd0:	e5b42008 	ldr	r2, [r4, #8]!
    ddd4:	e3833001 	orr	r3, r3, #1	; 0x1
    ddd8:	e5802008 	str	r2, [r0, #8]
    dddc:	e582000c 	str	r0, [r2, #12]
    dde0:	e5813004 	str	r3, [r1, #4]
    dde4:	e1a00007 	mov	r0, r7
    dde8:	eb00012d 	bl	e2a4 <__malloc_unlock>
    ddec:	e1a00004 	mov	r0, r4
    ddf0:	eafffed1 	b	d93c <_malloc_r+0xa0>
    ddf4:	e59fc204 	ldr	ip, [pc, #516]	; e000 <.text+0x5fe0>
    ddf8:	e59c3000 	ldr	r3, [ip]
    ddfc:	e0862003 	add	r2, r6, r3
    de00:	e58c2000 	str	r2, [ip]
    de04:	0a000062 	beq	df94 <_malloc_r+0x6f8>
    de08:	e59b3000 	ldr	r3, [fp]
    de0c:	e3730001 	cmn	r3, #1	; 0x1
    de10:	10613000 	rsbne	r3, r1, r0
    de14:	059f31e0 	ldreq	r3, [pc, #480]	; dffc <.text+0x5fdc>
    de18:	10823003 	addne	r3, r2, r3
    de1c:	05830000 	streq	r0, [r3]
    de20:	158c3000 	strne	r3, [ip]
    de24:	e2103007 	ands	r3, r0, #7	; 0x7
    de28:	12631008 	rsbne	r1, r3, #8	; 0x8
    de2c:	1080a001 	addne	sl, r0, r1
    de30:	01a01003 	moveq	r1, r3
    de34:	e08a3006 	add	r3, sl, r6
    de38:	e1a03a03 	mov	r3, r3, lsl #20
    de3c:	e1a03a23 	mov	r3, r3, lsr #20
    de40:	e2633a01 	rsb	r3, r3, #4096	; 0x1000
    de44:	e0814003 	add	r4, r1, r3
    de48:	e1a01004 	mov	r1, r4
    de4c:	e1a00007 	mov	r0, r7
    de50:	e58dc000 	str	ip, [sp]
    de54:	eb0005ac 	bl	f50c <_sbrk_r>
    de58:	e3700001 	cmn	r0, #1	; 0x1
    de5c:	106a3000 	rsbne	r3, sl, r0
    de60:	e59dc000 	ldr	ip, [sp]
    de64:	10833004 	addne	r3, r3, r4
    de68:	13830001 	orrne	r0, r3, #1	; 0x1
    de6c:	e59f217c 	ldr	r2, [pc, #380]	; dff0 <.text+0x5fd0>
    de70:	e59c3000 	ldr	r3, [ip]
    de74:	03a04000 	moveq	r4, #0	; 0x0
    de78:	02800002 	addeq	r0, r0, #2	; 0x2
    de7c:	e0843003 	add	r3, r4, r3
    de80:	e1590002 	cmp	r9, r2
    de84:	e1a0400a 	mov	r4, sl
    de88:	e58c3000 	str	r3, [ip]
    de8c:	e58a0004 	str	r0, [sl, #4]
    de90:	e582a008 	str	sl, [r2, #8]
    de94:	0a00000f 	beq	ded8 <_malloc_r+0x63c>
    de98:	e358000f 	cmp	r8, #15	; 0xf
    de9c:	93a03001 	movls	r3, #1	; 0x1
    dea0:	958a3004 	strls	r3, [sl, #4]
    dea4:	9affff91 	bls	dcf0 <_malloc_r+0x454>
    dea8:	e5993004 	ldr	r3, [r9, #4]
    deac:	e248200c 	sub	r2, r8, #12	; 0xc
    deb0:	e3c22007 	bic	r2, r2, #7	; 0x7
    deb4:	e2033001 	and	r3, r3, #1	; 0x1
    deb8:	e1823003 	orr	r3, r2, r3
    debc:	e3a01005 	mov	r1, #5	; 0x5
    dec0:	e352000f 	cmp	r2, #15	; 0xf
    dec4:	e0892002 	add	r2, r9, r2
    dec8:	e5893004 	str	r3, [r9, #4]
    decc:	e5821008 	str	r1, [r2, #8]
    ded0:	e5821004 	str	r1, [r2, #4]
    ded4:	8a000038 	bhi	dfbc <_malloc_r+0x720>
    ded8:	e59f1124 	ldr	r1, [pc, #292]	; e004 <.text+0x5fe4>
    dedc:	e59c2000 	ldr	r2, [ip]
    dee0:	e5913000 	ldr	r3, [r1]
    dee4:	e1520003 	cmp	r2, r3
    dee8:	85812000 	strhi	r2, [r1]
    deec:	e59f1114 	ldr	r1, [pc, #276]	; e008 <.text+0x5fe8>
    def0:	e5913000 	ldr	r3, [r1]
    def4:	e1520003 	cmp	r2, r3
    def8:	85812000 	strhi	r2, [r1]
    defc:	eaffff7b 	b	dcf0 <_malloc_r+0x454>
    df00:	e59f20e8 	ldr	r2, [pc, #232]	; dff0 <.text+0x5fd0>
    df04:	e5924008 	ldr	r4, [r2, #8]
    df08:	eaffff78 	b	dcf0 <_malloc_r+0x454>
    df0c:	e59a3004 	ldr	r3, [sl, #4]
    df10:	e1a01121 	mov	r1, r1, lsr #2
    df14:	e3a02001 	mov	r2, #1	; 0x1
    df18:	e1833112 	orr	r3, r3, r2, lsl r1
    df1c:	e58a3004 	str	r3, [sl, #4]
    df20:	eaffff15 	b	db7c <_malloc_r+0x2e0>
    df24:	e1a0c00e 	mov	ip, lr
    df28:	e1a01009 	mov	r1, r9
    df2c:	e31c0003 	tst	ip, #3	; 0x3
    df30:	e2411008 	sub	r1, r1, #8	; 0x8
    df34:	e24cc001 	sub	ip, ip, #1	; 0x1
    df38:	0a000027 	beq	dfdc <_malloc_r+0x740>
    df3c:	e5913008 	ldr	r3, [r1, #8]
    df40:	e1530001 	cmp	r3, r1
    df44:	0afffff8 	beq	df2c <_malloc_r+0x690>
    df48:	e1a02082 	mov	r2, r2, lsl #1
    df4c:	e1520000 	cmp	r2, r0
    df50:	8affff40 	bhi	dc58 <_malloc_r+0x3bc>
    df54:	e3520000 	cmp	r2, #0	; 0x0
    df58:	0affff3e 	beq	dc58 <_malloc_r+0x3bc>
    df5c:	e1120000 	tst	r2, r0
    df60:	11a0e00a 	movne	lr, sl
    df64:	1affff13 	bne	dbb8 <_malloc_r+0x31c>
    df68:	e1a02082 	mov	r2, r2, lsl #1
    df6c:	e1100002 	tst	r0, r2
    df70:	e28aa004 	add	sl, sl, #4	; 0x4
    df74:	0afffffb 	beq	df68 <_malloc_r+0x6cc>
    df78:	e1a0e00a 	mov	lr, sl
    df7c:	eaffff0d 	b	dbb8 <_malloc_r+0x31c>
    df80:	e59fc078 	ldr	ip, [pc, #120]	; e000 <.text+0x5fe0>
    df84:	e59c3000 	ldr	r3, [ip]
    df88:	e0862003 	add	r2, r6, r3
    df8c:	e58c2000 	str	r2, [ip]
    df90:	eaffff9c 	b	de08 <_malloc_r+0x56c>
    df94:	e1a03a00 	mov	r3, r0, lsl #20
    df98:	e1a03a23 	mov	r3, r3, lsr #20
    df9c:	e3530000 	cmp	r3, #0	; 0x0
    dfa0:	1affff98 	bne	de08 <_malloc_r+0x56c>
    dfa4:	e59f2044 	ldr	r2, [pc, #68]	; dff0 <.text+0x5fd0>
    dfa8:	e0863008 	add	r3, r6, r8
    dfac:	e5924008 	ldr	r4, [r2, #8]
    dfb0:	e3833001 	orr	r3, r3, #1	; 0x1
    dfb4:	e5843004 	str	r3, [r4, #4]
    dfb8:	eaffffc6 	b	ded8 <_malloc_r+0x63c>
    dfbc:	e2891008 	add	r1, r9, #8	; 0x8
    dfc0:	e1a00007 	mov	r0, r7
    dfc4:	e58dc000 	str	ip, [sp]
    dfc8:	ebfffbc0 	bl	ced0 <_free_r>
    dfcc:	e59f301c 	ldr	r3, [pc, #28]	; dff0 <.text+0x5fd0>
    dfd0:	e59dc000 	ldr	ip, [sp]
    dfd4:	e5934008 	ldr	r4, [r3, #8]
    dfd8:	eaffffbe 	b	ded8 <_malloc_r+0x63c>
    dfdc:	e1e03002 	mvn	r3, r2
    dfe0:	e0000003 	and	r0, r0, r3
    dfe4:	e59f3004 	ldr	r3, [pc, #4]	; dff0 <.text+0x5fd0>
    dfe8:	e5830004 	str	r0, [r3, #4]
    dfec:	eaffffd5 	b	df48 <_malloc_r+0x6ac>
    dff0:	00011014 	andeq	r1, r1, r4, lsl r0
    dff4:	0001101c 	andeq	r1, r1, ip, lsl r0
    dff8:	00011500 	andeq	r1, r1, r0, lsl #10
    dffc:	00011420 	andeq	r1, r1, r0, lsr #8
    e000:	0001150c 	andeq	r1, r1, ip, lsl #10
    e004:	00011504 	andeq	r1, r1, r4, lsl #10
    e008:	00011508 	andeq	r1, r1, r8, lsl #10

0000e00c <memchr>:
    e00c:	e1a0c002 	mov	ip, r2
    e010:	e35c0003 	cmp	ip, #3	; 0x3
    e014:	e52de004 	str	lr, [sp, #-4]!
    e018:	e1a02000 	mov	r2, r0
    e01c:	e20110ff 	and	r1, r1, #255	; 0xff
    e020:	9a000001 	bls	e02c <memchr+0x20>
    e024:	e2103003 	ands	r3, r0, #3	; 0x3
    e028:	0a00000d 	beq	e064 <memchr+0x58>
    e02c:	e35c0000 	cmp	ip, #0	; 0x0
    e030:	0a000009 	beq	e05c <memchr+0x50>
    e034:	e5d03000 	ldrb	r3, [r0]
    e038:	e1510003 	cmp	r1, r3
    e03c:	1a000003 	bne	e050 <memchr+0x44>
    e040:	e49df004 	ldr	pc, [sp], #4
    e044:	e5f03001 	ldrb	r3, [r0, #1]!
    e048:	e1510003 	cmp	r1, r3
    e04c:	049df004 	ldreq	pc, [sp], #4
    e050:	e35c0001 	cmp	ip, #1	; 0x1
    e054:	e24cc001 	sub	ip, ip, #1	; 0x1
    e058:	1afffff9 	bne	e044 <memchr+0x38>
    e05c:	e3a00000 	mov	r0, #0	; 0x0
    e060:	e49df004 	ldr	pc, [sp], #4
    e064:	e1a0e003 	mov	lr, r3
    e068:	e2833001 	add	r3, r3, #1	; 0x1
    e06c:	e3530004 	cmp	r3, #4	; 0x4
    e070:	e081e40e 	add	lr, r1, lr, lsl #8
    e074:	1afffffb 	bne	e068 <memchr+0x5c>
    e078:	e1a00002 	mov	r0, r2
    e07c:	e5902000 	ldr	r2, [r0]
    e080:	e022200e 	eor	r2, r2, lr
    e084:	e28234ff 	add	r3, r2, #-16777216	; 0xff000000
    e088:	e2433801 	sub	r3, r3, #65536	; 0x10000
    e08c:	e2433c01 	sub	r3, r3, #256	; 0x100
    e090:	e2433001 	sub	r3, r3, #1	; 0x1
    e094:	e3c3347f 	bic	r3, r3, #2130706432	; 0x7f000000
    e098:	e3c3387f 	bic	r3, r3, #8323072	; 0x7f0000
    e09c:	e3c33c7f 	bic	r3, r3, #32512	; 0x7f00
    e0a0:	e3c3307f 	bic	r3, r3, #127	; 0x7f
    e0a4:	e1d32002 	bics	r2, r3, r2
    e0a8:	e24cc004 	sub	ip, ip, #4	; 0x4
    e0ac:	0a00000f 	beq	e0f0 <memchr+0xe4>
    e0b0:	e5d03000 	ldrb	r3, [r0]
    e0b4:	e1510003 	cmp	r1, r3
    e0b8:	e1a02000 	mov	r2, r0
    e0bc:	0a00000f 	beq	e100 <memchr+0xf4>
    e0c0:	e5d03001 	ldrb	r3, [r0, #1]
    e0c4:	e1510003 	cmp	r1, r3
    e0c8:	e2802001 	add	r2, r0, #1	; 0x1
    e0cc:	0a00000b 	beq	e100 <memchr+0xf4>
    e0d0:	e5d03002 	ldrb	r3, [r0, #2]
    e0d4:	e1510003 	cmp	r1, r3
    e0d8:	e2802002 	add	r2, r0, #2	; 0x2
    e0dc:	0a000007 	beq	e100 <memchr+0xf4>
    e0e0:	e5d03003 	ldrb	r3, [r0, #3]
    e0e4:	e1510003 	cmp	r1, r3
    e0e8:	e2802003 	add	r2, r0, #3	; 0x3
    e0ec:	0a000003 	beq	e100 <memchr+0xf4>
    e0f0:	e35c0003 	cmp	ip, #3	; 0x3
    e0f4:	e2800004 	add	r0, r0, #4	; 0x4
    e0f8:	8affffdf 	bhi	e07c <memchr+0x70>
    e0fc:	eaffffca 	b	e02c <memchr+0x20>
    e100:	e1a00002 	mov	r0, r2
    e104:	e49df004 	ldr	pc, [sp], #4

0000e108 <memcpy>:
    e108:	e352000f 	cmp	r2, #15	; 0xf
    e10c:	e52de004 	str	lr, [sp, #-4]!
    e110:	e1a0c000 	mov	ip, r0
    e114:	e1a0e002 	mov	lr, r2
    e118:	9a000002 	bls	e128 <memcpy+0x20>
    e11c:	e1813000 	orr	r3, r1, r0
    e120:	e3130003 	tst	r3, #3	; 0x3
    e124:	0a000008 	beq	e14c <memcpy+0x44>
    e128:	e35e0000 	cmp	lr, #0	; 0x0
    e12c:	049df004 	ldreq	pc, [sp], #4
    e130:	e3a02000 	mov	r2, #0	; 0x0
    e134:	e4d13001 	ldrb	r3, [r1], #1
    e138:	e7c2300c 	strb	r3, [r2, ip]
    e13c:	e2822001 	add	r2, r2, #1	; 0x1
    e140:	e152000e 	cmp	r2, lr
    e144:	1afffffa 	bne	e134 <memcpy+0x2c>
    e148:	e49df004 	ldr	pc, [sp], #4
    e14c:	e5913000 	ldr	r3, [r1]
    e150:	e58c3000 	str	r3, [ip]
    e154:	e5912004 	ldr	r2, [r1, #4]
    e158:	e58c2004 	str	r2, [ip, #4]
    e15c:	e5913008 	ldr	r3, [r1, #8]
    e160:	e58c3008 	str	r3, [ip, #8]
    e164:	e24ee010 	sub	lr, lr, #16	; 0x10
    e168:	e591300c 	ldr	r3, [r1, #12]
    e16c:	e35e000f 	cmp	lr, #15	; 0xf
    e170:	e58c300c 	str	r3, [ip, #12]
    e174:	e2811010 	add	r1, r1, #16	; 0x10
    e178:	e28cc010 	add	ip, ip, #16	; 0x10
    e17c:	8afffff2 	bhi	e14c <memcpy+0x44>
    e180:	e35e0003 	cmp	lr, #3	; 0x3
    e184:	9affffe7 	bls	e128 <memcpy+0x20>
    e188:	e24ee004 	sub	lr, lr, #4	; 0x4
    e18c:	e4913004 	ldr	r3, [r1], #4
    e190:	e35e0003 	cmp	lr, #3	; 0x3
    e194:	e48c3004 	str	r3, [ip], #4
    e198:	8afffffa 	bhi	e188 <memcpy+0x80>
    e19c:	e35e0000 	cmp	lr, #0	; 0x0
    e1a0:	1affffe2 	bne	e130 <memcpy+0x28>
    e1a4:	e49df004 	ldr	pc, [sp], #4

0000e1a8 <memmove>:
    e1a8:	e1500001 	cmp	r0, r1
    e1ac:	e92d4010 	stmdb	sp!, {r4, lr}
    e1b0:	e1a0c000 	mov	ip, r0
    e1b4:	e1a04001 	mov	r4, r1
    e1b8:	e1a0e002 	mov	lr, r2
    e1bc:	9a000010 	bls	e204 <memmove+0x5c>
    e1c0:	e0813002 	add	r3, r1, r2
    e1c4:	e1500003 	cmp	r0, r3
    e1c8:	2a00000d 	bcs	e204 <memmove+0x5c>
    e1cc:	e3520000 	cmp	r2, #0	; 0x0
    e1d0:	08bd8010 	ldmeqia	sp!, {r4, pc}
    e1d4:	e0801002 	add	r1, r0, r2
    e1d8:	e1a0c003 	mov	ip, r3
    e1dc:	e0622001 	rsb	r2, r2, r1
    e1e0:	e57c3001 	ldrb	r3, [ip, #-1]!
    e1e4:	e5613001 	strb	r3, [r1, #-1]!
    e1e8:	e1520001 	cmp	r2, r1
    e1ec:	08bd8010 	ldmeqia	sp!, {r4, pc}
    e1f0:	e57c3001 	ldrb	r3, [ip, #-1]!
    e1f4:	e5613001 	strb	r3, [r1, #-1]!
    e1f8:	e1520001 	cmp	r2, r1
    e1fc:	1afffff7 	bne	e1e0 <memmove+0x38>
    e200:	e8bd8010 	ldmia	sp!, {r4, pc}
    e204:	e35e000f 	cmp	lr, #15	; 0xf
    e208:	8a000008 	bhi	e230 <memmove+0x88>
    e20c:	e35e0000 	cmp	lr, #0	; 0x0
    e210:	08bd8010 	ldmeqia	sp!, {r4, pc}
    e214:	e3a02000 	mov	r2, #0	; 0x0
    e218:	e4d13001 	ldrb	r3, [r1], #1
    e21c:	e7c2300c 	strb	r3, [r2, ip]
    e220:	e2822001 	add	r2, r2, #1	; 0x1
    e224:	e152000e 	cmp	r2, lr
    e228:	1afffffa 	bne	e218 <memmove+0x70>
    e22c:	e8bd8010 	ldmia	sp!, {r4, pc}
    e230:	e1843000 	orr	r3, r4, r0
    e234:	e3130003 	tst	r3, #3	; 0x3
    e238:	1afffff3 	bne	e20c <memmove+0x64>
    e23c:	e1a01004 	mov	r1, r4
    e240:	e1a0c000 	mov	ip, r0
    e244:	e5913000 	ldr	r3, [r1]
    e248:	e58c3000 	str	r3, [ip]
    e24c:	e5912004 	ldr	r2, [r1, #4]
    e250:	e58c2004 	str	r2, [ip, #4]
    e254:	e5913008 	ldr	r3, [r1, #8]
    e258:	e58c3008 	str	r3, [ip, #8]
    e25c:	e24ee010 	sub	lr, lr, #16	; 0x10
    e260:	e591300c 	ldr	r3, [r1, #12]
    e264:	e35e000f 	cmp	lr, #15	; 0xf
    e268:	e58c300c 	str	r3, [ip, #12]
    e26c:	e2811010 	add	r1, r1, #16	; 0x10
    e270:	e28cc010 	add	ip, ip, #16	; 0x10
    e274:	8afffff2 	bhi	e244 <memmove+0x9c>
    e278:	e35e0003 	cmp	lr, #3	; 0x3
    e27c:	9affffe2 	bls	e20c <memmove+0x64>
    e280:	e24ee004 	sub	lr, lr, #4	; 0x4
    e284:	e4913004 	ldr	r3, [r1], #4
    e288:	e35e0003 	cmp	lr, #3	; 0x3
    e28c:	e48c3004 	str	r3, [ip], #4
    e290:	8afffffa 	bhi	e280 <memmove+0xd8>
    e294:	e35e0000 	cmp	lr, #0	; 0x0
    e298:	1affffdd 	bne	e214 <memmove+0x6c>
    e29c:	e8bd8010 	ldmia	sp!, {r4, pc}

0000e2a0 <__malloc_lock>:
    e2a0:	e12fff1e 	bx	lr

0000e2a4 <__malloc_unlock>:
    e2a4:	e12fff1e 	bx	lr

0000e2a8 <_Bfree>:
    e2a8:	e251c000 	subs	ip, r1, #0	; 0x0
    e2ac:	1590104c 	ldrne	r1, [r0, #76]
    e2b0:	159c2004 	ldrne	r2, [ip, #4]
    e2b4:	17913102 	ldrne	r3, [r1, r2, lsl #2]
    e2b8:	158c3000 	strne	r3, [ip]
    e2bc:	1781c102 	strne	ip, [r1, r2, lsl #2]
    e2c0:	e12fff1e 	bx	lr

0000e2c4 <_hi0bits>:
    e2c4:	e1a03820 	mov	r3, r0, lsr #16
    e2c8:	e1a03803 	mov	r3, r3, lsl #16
    e2cc:	e3530000 	cmp	r3, #0	; 0x0
    e2d0:	01a00800 	moveq	r0, r0, lsl #16
    e2d4:	13a03000 	movne	r3, #0	; 0x0
    e2d8:	03a03010 	moveq	r3, #16	; 0x10
    e2dc:	e31004ff 	tst	r0, #-16777216	; 0xff000000
    e2e0:	01a00400 	moveq	r0, r0, lsl #8
    e2e4:	02833008 	addeq	r3, r3, #8	; 0x8
    e2e8:	e310020f 	tst	r0, #-268435456	; 0xf0000000
    e2ec:	01a00200 	moveq	r0, r0, lsl #4
    e2f0:	02833004 	addeq	r3, r3, #4	; 0x4
    e2f4:	e3100103 	tst	r0, #-1073741824	; 0xc0000000
    e2f8:	01a00100 	moveq	r0, r0, lsl #2
    e2fc:	02833002 	addeq	r3, r3, #2	; 0x2
    e300:	e3500000 	cmp	r0, #0	; 0x0
    e304:	ba000002 	blt	e314 <_hi0bits+0x50>
    e308:	e3100101 	tst	r0, #1073741824	; 0x40000000
    e30c:	03a03020 	moveq	r3, #32	; 0x20
    e310:	12833001 	addne	r3, r3, #1	; 0x1
    e314:	e1a00003 	mov	r0, r3
    e318:	e12fff1e 	bx	lr

0000e31c <_lo0bits>:
    e31c:	e5902000 	ldr	r2, [r0]
    e320:	e1a01000 	mov	r1, r0
    e324:	e2120007 	ands	r0, r2, #7	; 0x7
    e328:	0a00000a 	beq	e358 <_lo0bits+0x3c>
    e32c:	e3120001 	tst	r2, #1	; 0x1
    e330:	13a00000 	movne	r0, #0	; 0x0
    e334:	112fff1e 	bxne	lr
    e338:	e3120002 	tst	r2, #2	; 0x2
    e33c:	11a030a2 	movne	r3, r2, lsr #1
    e340:	01a03122 	moveq	r3, r2, lsr #2
    e344:	13a00001 	movne	r0, #1	; 0x1
    e348:	03a00002 	moveq	r0, #2	; 0x2
    e34c:	15813000 	strne	r3, [r1]
    e350:	05813000 	streq	r3, [r1]
    e354:	e12fff1e 	bx	lr
    e358:	e1a03802 	mov	r3, r2, lsl #16
    e35c:	e1a03823 	mov	r3, r3, lsr #16
    e360:	e3530000 	cmp	r3, #0	; 0x0
    e364:	01a02822 	moveq	r2, r2, lsr #16
    e368:	03a00010 	moveq	r0, #16	; 0x10
    e36c:	e31200ff 	tst	r2, #255	; 0xff
    e370:	01a02422 	moveq	r2, r2, lsr #8
    e374:	02800008 	addeq	r0, r0, #8	; 0x8
    e378:	e312000f 	tst	r2, #15	; 0xf
    e37c:	01a02222 	moveq	r2, r2, lsr #4
    e380:	02800004 	addeq	r0, r0, #4	; 0x4
    e384:	e3120003 	tst	r2, #3	; 0x3
    e388:	01a02122 	moveq	r2, r2, lsr #2
    e38c:	02800002 	addeq	r0, r0, #2	; 0x2
    e390:	e3120001 	tst	r2, #1	; 0x1
    e394:	1a000003 	bne	e3a8 <_lo0bits+0x8c>
    e398:	e1b020a2 	movs	r2, r2, lsr #1
    e39c:	03a00020 	moveq	r0, #32	; 0x20
    e3a0:	012fff1e 	bxeq	lr
    e3a4:	e2800001 	add	r0, r0, #1	; 0x1
    e3a8:	e5812000 	str	r2, [r1]
    e3ac:	e12fff1e 	bx	lr

0000e3b0 <__mcmp>:
    e3b0:	e5903010 	ldr	r3, [r0, #16]
    e3b4:	e5912010 	ldr	r2, [r1, #16]
    e3b8:	e52de004 	str	lr, [sp, #-4]!
    e3bc:	e053e002 	subs	lr, r3, r2
    e3c0:	1a00000c 	bne	e3f8 <__mcmp+0x48>
    e3c4:	e1a02102 	mov	r2, r2, lsl #2
    e3c8:	e2800014 	add	r0, r0, #20	; 0x14
    e3cc:	e2823014 	add	r3, r2, #20	; 0x14
    e3d0:	e0811003 	add	r1, r1, r3
    e3d4:	e080c002 	add	ip, r0, r2
    e3d8:	e51c2004 	ldr	r2, [ip, #-4]
    e3dc:	e5113004 	ldr	r3, [r1, #-4]
    e3e0:	e1520003 	cmp	r2, r3
    e3e4:	e24cc004 	sub	ip, ip, #4	; 0x4
    e3e8:	e2411004 	sub	r1, r1, #4	; 0x4
    e3ec:	1a000003 	bne	e400 <__mcmp+0x50>
    e3f0:	e150000c 	cmp	r0, ip
    e3f4:	3afffff7 	bcc	e3d8 <__mcmp+0x28>
    e3f8:	e1a0000e 	mov	r0, lr
    e3fc:	e49df004 	ldr	pc, [sp], #4
    e400:	33e0e000 	mvncc	lr, #0	; 0x0
    e404:	23a0e001 	movcs	lr, #1	; 0x1
    e408:	e1a0000e 	mov	r0, lr
    e40c:	e49df004 	ldr	pc, [sp], #4

0000e410 <_ulp>:
    e410:	e3c00102 	bic	r0, r0, #-2147483648	; 0x80000000
    e414:	e1a00a20 	mov	r0, r0, lsr #20
    e418:	e1a00a00 	mov	r0, r0, lsl #20
    e41c:	e240250d 	sub	r2, r0, #54525952	; 0x3400000
    e420:	e3520000 	cmp	r2, #0	; 0x0
    e424:	e2623000 	rsb	r3, r2, #0	; 0x0
    e428:	e1a0ca43 	mov	ip, r3, asr #20
    e42c:	c1a00002 	movgt	r0, r2
    e430:	c3a01000 	movgt	r1, #0	; 0x0
    e434:	c12fff1e 	bxgt	lr
    e438:	e35c0013 	cmp	ip, #19	; 0x13
    e43c:	e24c3014 	sub	r3, ip, #20	; 0x14
    e440:	d3a03702 	movle	r3, #524288	; 0x80000
    e444:	d1a00c53 	movle	r0, r3, asr ip
    e448:	d3a01000 	movle	r1, #0	; 0x0
    e44c:	d12fff1e 	bxle	lr
    e450:	e353001e 	cmp	r3, #30	; 0x1e
    e454:	e263201f 	rsb	r2, r3, #31	; 0x1f
    e458:	e3a03001 	mov	r3, #1	; 0x1
    e45c:	d3a03001 	movle	r3, #1	; 0x1
    e460:	d1a03213 	movle	r3, r3, lsl r2
    e464:	e3a00000 	mov	r0, #0	; 0x0
    e468:	e1a01003 	mov	r1, r3
    e46c:	e12fff1e 	bx	lr

0000e470 <_b2d>:
    e470:	e5903010 	ldr	r3, [r0, #16]
    e474:	e92d40f0 	stmdb	sp!, {r4, r5, r6, r7, lr}
    e478:	e2806014 	add	r6, r0, #20	; 0x14
    e47c:	e0863103 	add	r3, r6, r3, lsl #2
    e480:	e5137004 	ldr	r7, [r3, #-4]
    e484:	e1a00007 	mov	r0, r7
    e488:	e1a04001 	mov	r4, r1
    e48c:	e2435004 	sub	r5, r3, #4	; 0x4
    e490:	ebffff8b 	bl	e2c4 <_hi0bits>
    e494:	e2603020 	rsb	r3, r0, #32	; 0x20
    e498:	e350000a 	cmp	r0, #10	; 0xa
    e49c:	e1a02000 	mov	r2, r0
    e4a0:	e5843000 	str	r3, [r4]
    e4a4:	ca00000a 	bgt	e4d4 <_b2d+0x64>
    e4a8:	e1560005 	cmp	r6, r5
    e4ac:	35153004 	ldrcc	r3, [r5, #-4]
    e4b0:	e260c00b 	rsb	ip, r0, #11	; 0xb
    e4b4:	31a0ec33 	movcc	lr, r3, lsr ip
    e4b8:	e1a03c37 	mov	r3, r7, lsr ip
    e4bc:	23a0e000 	movcs	lr, #0	; 0x0
    e4c0:	e2822015 	add	r2, r2, #21	; 0x15
    e4c4:	e18e1217 	orr	r1, lr, r7, lsl r2
    e4c8:	e38305ff 	orr	r0, r3, #1069547520	; 0x3fc00000
    e4cc:	e3800603 	orr	r0, r0, #3145728	; 0x300000
    e4d0:	e8bd80f0 	ldmia	sp!, {r4, r5, r6, r7, pc}
    e4d4:	e1560005 	cmp	r6, r5
    e4d8:	23a0e000 	movcs	lr, #0	; 0x0
    e4dc:	3535e004 	ldrcc	lr, [r5, #-4]!
    e4e0:	e250200b 	subs	r2, r0, #11	; 0xb
    e4e4:	1a000003 	bne	e4f8 <_b2d+0x88>
    e4e8:	e38705ff 	orr	r0, r7, #1069547520	; 0x3fc00000
    e4ec:	e3800603 	orr	r0, r0, #3145728	; 0x300000
    e4f0:	e1a0100e 	mov	r1, lr
    e4f4:	e8bd80f0 	ldmia	sp!, {r4, r5, r6, r7, pc}
    e4f8:	e1550006 	cmp	r5, r6
    e4fc:	85153004 	ldrhi	r3, [r5, #-4]
    e500:	e262c020 	rsb	ip, r2, #32	; 0x20
    e504:	81a04c33 	movhi	r4, r3, lsr ip
    e508:	e1a03217 	mov	r3, r7, lsl r2
    e50c:	e38335ff 	orr	r3, r3, #1069547520	; 0x3fc00000
    e510:	93a04000 	movls	r4, #0	; 0x0
    e514:	e3833603 	orr	r3, r3, #3145728	; 0x300000
    e518:	e1830c3e 	orr	r0, r3, lr, lsr ip
    e51c:	e184121e 	orr	r1, r4, lr, lsl r2
    e520:	e8bd80f0 	ldmia	sp!, {r4, r5, r6, r7, pc}

0000e524 <_ratio>:
    e524:	e92d43f0 	stmdb	sp!, {r4, r5, r6, r7, r8, r9, lr}
    e528:	e24dd008 	sub	sp, sp, #8	; 0x8
    e52c:	e1a04001 	mov	r4, r1
    e530:	e28d1004 	add	r1, sp, #4	; 0x4
    e534:	e1a05000 	mov	r5, r0
    e538:	ebffffcc 	bl	e470 <_b2d>
    e53c:	e1a06000 	mov	r6, r0
    e540:	e1a07001 	mov	r7, r1
    e544:	e1a00004 	mov	r0, r4
    e548:	e1a0100d 	mov	r1, sp
    e54c:	ebffffc7 	bl	e470 <_b2d>
    e550:	e5942010 	ldr	r2, [r4, #16]
    e554:	e1a09001 	mov	r9, r1
    e558:	e5951010 	ldr	r1, [r5, #16]
    e55c:	e59d3004 	ldr	r3, [sp, #4]
    e560:	e0621001 	rsb	r1, r2, r1
    e564:	e59d2000 	ldr	r2, [sp]
    e568:	e0623003 	rsb	r3, r2, r3
    e56c:	e0833281 	add	r3, r3, r1, lsl #5
    e570:	e1a08000 	mov	r8, r0
    e574:	e3530000 	cmp	r3, #0	; 0x0
    e578:	c0866a03 	addgt	r6, r6, r3, lsl #20
    e57c:	d0488a03 	suble	r8, r8, r3, lsl #20
    e580:	e1a00006 	mov	r0, r6
    e584:	e1a01007 	mov	r1, r7
    e588:	e1a02008 	mov	r2, r8
    e58c:	e1a03009 	mov	r3, r9
    e590:	eb000780 	bl	10398 <__aeabi_ddiv>
    e594:	e28dd008 	add	sp, sp, #8	; 0x8
    e598:	e8bd83f0 	ldmia	sp!, {r4, r5, r6, r7, r8, r9, pc}

0000e59c <_mprec_log10>:
    e59c:	e3500017 	cmp	r0, #23	; 0x17
    e5a0:	e92d4010 	stmdb	sp!, {r4, lr}
    e5a4:	e1a04000 	mov	r4, r0
    e5a8:	c3a005ff 	movgt	r0, #1069547520	; 0x3fc00000
    e5ac:	c2800603 	addgt	r0, r0, #3145728	; 0x300000
    e5b0:	c3a01000 	movgt	r1, #0	; 0x0
    e5b4:	ca000003 	bgt	e5c8 <_mprec_log10+0x2c>
    e5b8:	e59f3024 	ldr	r3, [pc, #36]	; e5e4 <.text+0x65c4>
    e5bc:	e0833184 	add	r3, r3, r4, lsl #3
    e5c0:	e8930003 	ldmia	r3, {r0, r1}
    e5c4:	e8bd8010 	ldmia	sp!, {r4, pc}
    e5c8:	e3a02101 	mov	r2, #1073741824	; 0x40000000
    e5cc:	e2822709 	add	r2, r2, #2359296	; 0x240000
    e5d0:	e3a03000 	mov	r3, #0	; 0x0
    e5d4:	eb0006d4 	bl	1012c <__aeabi_dmul>
    e5d8:	e2544001 	subs	r4, r4, #1	; 0x1
    e5dc:	1afffff9 	bne	e5c8 <_mprec_log10+0x2c>
    e5e0:	e8bd8010 	ldmia	sp!, {r4, pc}
    e5e4:	00010878 	andeq	r0, r1, r8, ror r8

0000e5e8 <_Balloc>:
    e5e8:	e590c04c 	ldr	ip, [r0, #76]
    e5ec:	e35c0000 	cmp	ip, #0	; 0x0
    e5f0:	e92d4070 	stmdb	sp!, {r4, r5, r6, lr}
    e5f4:	e3a02010 	mov	r2, #16	; 0x10
    e5f8:	e1a06001 	mov	r6, r1
    e5fc:	e1a04000 	mov	r4, r0
    e600:	e3a01004 	mov	r1, #4	; 0x4
    e604:	0a00000c 	beq	e63c <_Balloc+0x54>
    e608:	e79c5106 	ldr	r5, [ip, r6, lsl #2]
    e60c:	e3550000 	cmp	r5, #0	; 0x0
    e610:	15953000 	ldrne	r3, [r5]
    e614:	e3a02001 	mov	r2, #1	; 0x1
    e618:	e1a00004 	mov	r0, r4
    e61c:	e1a01002 	mov	r1, r2
    e620:	178c3106 	strne	r3, [ip, r6, lsl #2]
    e624:	0a00000b 	beq	e658 <_Balloc+0x70>
    e628:	e3a03000 	mov	r3, #0	; 0x0
    e62c:	e585300c 	str	r3, [r5, #12]
    e630:	e5853010 	str	r3, [r5, #16]
    e634:	e1a00005 	mov	r0, r5
    e638:	e8bd8070 	ldmia	sp!, {r4, r5, r6, pc}
    e63c:	eb000468 	bl	f7e4 <_calloc_r>
    e640:	e3500000 	cmp	r0, #0	; 0x0
    e644:	e1a0c000 	mov	ip, r0
    e648:	e1a05000 	mov	r5, r0
    e64c:	e584004c 	str	r0, [r4, #76]
    e650:	1affffec 	bne	e608 <_Balloc+0x20>
    e654:	eafffff6 	b	e634 <_Balloc+0x4c>
    e658:	e1a04612 	mov	r4, r2, lsl r6
    e65c:	e1a02104 	mov	r2, r4, lsl #2
    e660:	e2822014 	add	r2, r2, #20	; 0x14
    e664:	eb00045e 	bl	f7e4 <_calloc_r>
    e668:	e3500000 	cmp	r0, #0	; 0x0
    e66c:	0afffff0 	beq	e634 <_Balloc+0x4c>
    e670:	e1a05000 	mov	r5, r0
    e674:	e5806004 	str	r6, [r0, #4]
    e678:	e5804008 	str	r4, [r0, #8]
    e67c:	eaffffe9 	b	e628 <_Balloc+0x40>

0000e680 <_d2b>:
    e680:	e92d47f0 	stmdb	sp!, {r4, r5, r6, r7, r8, r9, sl, lr}
    e684:	e1a04001 	mov	r4, r1
    e688:	e24dd008 	sub	sp, sp, #8	; 0x8
    e68c:	e3a01001 	mov	r1, #1	; 0x1
    e690:	e1a05002 	mov	r5, r2
    e694:	e1a0a003 	mov	sl, r3
    e698:	e59d9028 	ldr	r9, [sp, #40]
    e69c:	ebffffd1 	bl	e5e8 <_Balloc>
    e6a0:	e3c42102 	bic	r2, r4, #-2147483648	; 0x80000000
    e6a4:	e3c434ff 	bic	r3, r4, #-16777216	; 0xff000000
    e6a8:	e3c3360f 	bic	r3, r3, #15728640	; 0xf00000
    e6ac:	e1b07a22 	movs	r7, r2, lsr #20
    e6b0:	e58d3000 	str	r3, [sp]
    e6b4:	13833601 	orrne	r3, r3, #1048576	; 0x100000
    e6b8:	158d3000 	strne	r3, [sp]
    e6bc:	e3550000 	cmp	r5, #0	; 0x0
    e6c0:	e1a06000 	mov	r6, r0
    e6c4:	e2808014 	add	r8, r0, #20	; 0x14
    e6c8:	0a000022 	beq	e758 <_d2b+0xd8>
    e6cc:	e28d0008 	add	r0, sp, #8	; 0x8
    e6d0:	e5205004 	str	r5, [r0, #-4]!
    e6d4:	ebffff10 	bl	e31c <_lo0bits>
    e6d8:	e3500000 	cmp	r0, #0	; 0x0
    e6dc:	0a000030 	beq	e7a4 <_d2b+0x124>
    e6e0:	e89d000c 	ldmia	sp, {r2, r3}
    e6e4:	e2601020 	rsb	r1, r0, #32	; 0x20
    e6e8:	e1833112 	orr	r3, r3, r2, lsl r1
    e6ec:	e5863014 	str	r3, [r6, #20]
    e6f0:	e59d3000 	ldr	r3, [sp]
    e6f4:	e1a03033 	mov	r3, r3, lsr r0
    e6f8:	e58d3000 	str	r3, [sp]
    e6fc:	e3530000 	cmp	r3, #0	; 0x0
    e700:	03a04001 	moveq	r4, #1	; 0x1
    e704:	13a04002 	movne	r4, #2	; 0x2
    e708:	e3570000 	cmp	r7, #0	; 0x0
    e70c:	e5883004 	str	r3, [r8, #4]
    e710:	10803007 	addne	r3, r0, r7
    e714:	12433e43 	subne	r3, r3, #1072	; 0x430
    e718:	12433003 	subne	r3, r3, #3	; 0x3
    e71c:	12602035 	rsbne	r2, r0, #53	; 0x35
    e720:	e5864010 	str	r4, [r6, #16]
    e724:	158a3000 	strne	r3, [sl]
    e728:	15892000 	strne	r2, [r9]
    e72c:	1a000019 	bne	e798 <_d2b+0x118>
    e730:	e2403e43 	sub	r3, r0, #1072	; 0x430
    e734:	e0882104 	add	r2, r8, r4, lsl #2
    e738:	e2433002 	sub	r3, r3, #2	; 0x2
    e73c:	e58a3000 	str	r3, [sl]
    e740:	e5120004 	ldr	r0, [r2, #-4]
    e744:	ebfffede 	bl	e2c4 <_hi0bits>
    e748:	e1a04284 	mov	r4, r4, lsl #5
    e74c:	e0604004 	rsb	r4, r0, r4
    e750:	e5894000 	str	r4, [r9]
    e754:	ea00000f 	b	e798 <_d2b+0x118>
    e758:	e1a0000d 	mov	r0, sp
    e75c:	ebfffeee 	bl	e31c <_lo0bits>
    e760:	e59d3000 	ldr	r3, [sp]
    e764:	e3570000 	cmp	r7, #0	; 0x0
    e768:	e2800020 	add	r0, r0, #32	; 0x20
    e76c:	e5863014 	str	r3, [r6, #20]
    e770:	10803007 	addne	r3, r0, r7
    e774:	e3a02001 	mov	r2, #1	; 0x1
    e778:	12433e43 	subne	r3, r3, #1072	; 0x430
    e77c:	e5862010 	str	r2, [r6, #16]
    e780:	e1a04002 	mov	r4, r2
    e784:	12433003 	subne	r3, r3, #3	; 0x3
    e788:	12602035 	rsbne	r2, r0, #53	; 0x35
    e78c:	158a3000 	strne	r3, [sl]
    e790:	15892000 	strne	r2, [r9]
    e794:	0affffe5 	beq	e730 <_d2b+0xb0>
    e798:	e1a00006 	mov	r0, r6
    e79c:	e28dd008 	add	sp, sp, #8	; 0x8
    e7a0:	e8bd87f0 	ldmia	sp!, {r4, r5, r6, r7, r8, r9, sl, pc}
    e7a4:	e59d3004 	ldr	r3, [sp, #4]
    e7a8:	e5863014 	str	r3, [r6, #20]
    e7ac:	e59d3000 	ldr	r3, [sp]
    e7b0:	eaffffd1 	b	e6fc <_d2b+0x7c>

0000e7b4 <__mdiff>:
    e7b4:	e92d45f0 	stmdb	sp!, {r4, r5, r6, r7, r8, sl, lr}
    e7b8:	e1a04001 	mov	r4, r1
    e7bc:	e1a07000 	mov	r7, r0
    e7c0:	e1a01002 	mov	r1, r2
    e7c4:	e1a00004 	mov	r0, r4
    e7c8:	e1a05002 	mov	r5, r2
    e7cc:	ebfffef7 	bl	e3b0 <__mcmp>
    e7d0:	e2506000 	subs	r6, r0, #0	; 0x0
    e7d4:	0a00003a 	beq	e8c4 <__mdiff+0x110>
    e7d8:	b1a03005 	movlt	r3, r5
    e7dc:	b1a05004 	movlt	r5, r4
    e7e0:	b1a04003 	movlt	r4, r3
    e7e4:	e1a00007 	mov	r0, r7
    e7e8:	e5941004 	ldr	r1, [r4, #4]
    e7ec:	b3a0a001 	movlt	sl, #1	; 0x1
    e7f0:	a3a0a000 	movge	sl, #0	; 0x0
    e7f4:	ebffff7b 	bl	e5e8 <_Balloc>
    e7f8:	e5953010 	ldr	r3, [r5, #16]
    e7fc:	e5946010 	ldr	r6, [r4, #16]
    e800:	e284e014 	add	lr, r4, #20	; 0x14
    e804:	e2854014 	add	r4, r5, #20	; 0x14
    e808:	e580a00c 	str	sl, [r0, #12]
    e80c:	e1a08000 	mov	r8, r0
    e810:	e0847103 	add	r7, r4, r3, lsl #2
    e814:	e08ea106 	add	sl, lr, r6, lsl #2
    e818:	e280c014 	add	ip, r0, #20	; 0x14
    e81c:	e3a05000 	mov	r5, #0	; 0x0
    e820:	e4942004 	ldr	r2, [r4], #4
    e824:	e49e0004 	ldr	r0, [lr], #4
    e828:	e1a01802 	mov	r1, r2, lsl #16
    e82c:	e1a03800 	mov	r3, r0, lsl #16
    e830:	e1a03823 	mov	r3, r3, lsr #16
    e834:	e1a01821 	mov	r1, r1, lsr #16
    e838:	e0613003 	rsb	r3, r1, r3
    e83c:	e1a02822 	mov	r2, r2, lsr #16
    e840:	e0833005 	add	r3, r3, r5
    e844:	e0622820 	rsb	r2, r2, r0, lsr #16
    e848:	e0822843 	add	r2, r2, r3, asr #16
    e84c:	e1570004 	cmp	r7, r4
    e850:	e1cc20b2 	strh	r2, [ip, #2]
    e854:	e1a05842 	mov	r5, r2, asr #16
    e858:	e0cc30b4 	strh	r3, [ip], #4
    e85c:	8affffef 	bhi	e820 <__mdiff+0x6c>
    e860:	e15a000e 	cmp	sl, lr
    e864:	9a00000a 	bls	e894 <__mdiff+0xe0>
    e868:	e49e3004 	ldr	r3, [lr], #4
    e86c:	e1a02803 	mov	r2, r3, lsl #16
    e870:	e1a02822 	mov	r2, r2, lsr #16
    e874:	e0822005 	add	r2, r2, r5
    e878:	e1a01842 	mov	r1, r2, asr #16
    e87c:	e0811823 	add	r1, r1, r3, lsr #16
    e880:	e15a000e 	cmp	sl, lr
    e884:	e1cc10b2 	strh	r1, [ip, #2]
    e888:	e1a05841 	mov	r5, r1, asr #16
    e88c:	e0cc20b4 	strh	r2, [ip], #4
    e890:	8afffff4 	bhi	e868 <__mdiff+0xb4>
    e894:	e51c3004 	ldr	r3, [ip, #-4]
    e898:	e3530000 	cmp	r3, #0	; 0x0
    e89c:	1a000005 	bne	e8b8 <__mdiff+0x104>
    e8a0:	e1a0200c 	mov	r2, ip
    e8a4:	e5123008 	ldr	r3, [r2, #-8]
    e8a8:	e3530000 	cmp	r3, #0	; 0x0
    e8ac:	e2466001 	sub	r6, r6, #1	; 0x1
    e8b0:	e2422004 	sub	r2, r2, #4	; 0x4
    e8b4:	0afffffa 	beq	e8a4 <__mdiff+0xf0>
    e8b8:	e1a00008 	mov	r0, r8
    e8bc:	e5886010 	str	r6, [r8, #16]
    e8c0:	e8bd85f0 	ldmia	sp!, {r4, r5, r6, r7, r8, sl, pc}
    e8c4:	e1a00007 	mov	r0, r7
    e8c8:	e1a01006 	mov	r1, r6
    e8cc:	ebffff45 	bl	e5e8 <_Balloc>
    e8d0:	e3a03001 	mov	r3, #1	; 0x1
    e8d4:	e1a08000 	mov	r8, r0
    e8d8:	e5803010 	str	r3, [r0, #16]
    e8dc:	e5806014 	str	r6, [r0, #20]
    e8e0:	e1a00008 	mov	r0, r8
    e8e4:	e8bd85f0 	ldmia	sp!, {r4, r5, r6, r7, r8, sl, pc}

0000e8e8 <_lshift>:
    e8e8:	e5913010 	ldr	r3, [r1, #16]
    e8ec:	e92d45f0 	stmdb	sp!, {r4, r5, r6, r7, r8, sl, lr}
    e8f0:	e2833001 	add	r3, r3, #1	; 0x1
    e8f4:	e1a042c2 	mov	r4, r2, asr #5
    e8f8:	e1a06002 	mov	r6, r2
    e8fc:	e5912008 	ldr	r2, [r1, #8]
    e900:	e0845003 	add	r5, r4, r3
    e904:	e1550002 	cmp	r5, r2
    e908:	e1a07001 	mov	r7, r1
    e90c:	e1a0a000 	mov	sl, r0
    e910:	e5911004 	ldr	r1, [r1, #4]
    e914:	da000003 	ble	e928 <_lshift+0x40>
    e918:	e1a02082 	mov	r2, r2, lsl #1
    e91c:	e1550002 	cmp	r5, r2
    e920:	e2811001 	add	r1, r1, #1	; 0x1
    e924:	cafffffb 	bgt	e918 <_lshift+0x30>
    e928:	e1a0000a 	mov	r0, sl
    e92c:	ebffff2d 	bl	e5e8 <_Balloc>
    e930:	e3540000 	cmp	r4, #0	; 0x0
    e934:	e1a08000 	mov	r8, r0
    e938:	e2800014 	add	r0, r0, #20	; 0x14
    e93c:	da000007 	ble	e960 <_lshift+0x78>
    e940:	e3a03000 	mov	r3, #0	; 0x0
    e944:	e1a02000 	mov	r2, r0
    e948:	e1a01003 	mov	r1, r3
    e94c:	e2833001 	add	r3, r3, #1	; 0x1
    e950:	e1540003 	cmp	r4, r3
    e954:	e4821004 	str	r1, [r2], #4
    e958:	1afffffb 	bne	e94c <_lshift+0x64>
    e95c:	e0800104 	add	r0, r0, r4, lsl #2
    e960:	e5973010 	ldr	r3, [r7, #16]
    e964:	e2871014 	add	r1, r7, #20	; 0x14
    e968:	e216401f 	ands	r4, r6, #31	; 0x1f
    e96c:	e081c103 	add	ip, r1, r3, lsl #2
    e970:	0a000012 	beq	e9c0 <_lshift+0xd8>
    e974:	e264e020 	rsb	lr, r4, #32	; 0x20
    e978:	e3a02000 	mov	r2, #0	; 0x0
    e97c:	e5913000 	ldr	r3, [r1]
    e980:	e1823413 	orr	r3, r2, r3, lsl r4
    e984:	e4803004 	str	r3, [r0], #4
    e988:	e4912004 	ldr	r2, [r1], #4
    e98c:	e15c0001 	cmp	ip, r1
    e990:	e1a02e32 	mov	r2, r2, lsr lr
    e994:	8afffff8 	bhi	e97c <_lshift+0x94>
    e998:	e3520000 	cmp	r2, #0	; 0x0
    e99c:	e5802000 	str	r2, [r0]
    e9a0:	12855001 	addne	r5, r5, #1	; 0x1
    e9a4:	e2453001 	sub	r3, r5, #1	; 0x1
    e9a8:	e1a0000a 	mov	r0, sl
    e9ac:	e5883010 	str	r3, [r8, #16]
    e9b0:	e1a01007 	mov	r1, r7
    e9b4:	ebfffe3b 	bl	e2a8 <_Bfree>
    e9b8:	e1a00008 	mov	r0, r8
    e9bc:	e8bd85f0 	ldmia	sp!, {r4, r5, r6, r7, r8, sl, pc}
    e9c0:	e4913004 	ldr	r3, [r1], #4
    e9c4:	e15c0001 	cmp	ip, r1
    e9c8:	e4803004 	str	r3, [r0], #4
    e9cc:	9afffff4 	bls	e9a4 <_lshift+0xbc>
    e9d0:	e4913004 	ldr	r3, [r1], #4
    e9d4:	e15c0001 	cmp	ip, r1
    e9d8:	e4803004 	str	r3, [r0], #4
    e9dc:	8afffff7 	bhi	e9c0 <_lshift+0xd8>
    e9e0:	eaffffef 	b	e9a4 <_lshift+0xbc>

0000e9e4 <_multiply>:
    e9e4:	e92d4ff0 	stmdb	sp!, {r4, r5, r6, r7, r8, r9, sl, fp, lr}
    e9e8:	e5918010 	ldr	r8, [r1, #16]
    e9ec:	e5925010 	ldr	r5, [r2, #16]
    e9f0:	e1580005 	cmp	r8, r5
    e9f4:	b1a03002 	movlt	r3, r2
    e9f8:	e1a06002 	mov	r6, r2
    e9fc:	b1a06001 	movlt	r6, r1
    ea00:	e1a04001 	mov	r4, r1
    ea04:	b1a08005 	movlt	r8, r5
    ea08:	b1a04003 	movlt	r4, r3
    ea0c:	b5965010 	ldrlt	r5, [r6, #16]
    ea10:	e994000a 	ldmib	r4, {r1, r3}
    ea14:	e0889005 	add	r9, r8, r5
    ea18:	e1590003 	cmp	r9, r3
    ea1c:	e24dd00c 	sub	sp, sp, #12	; 0xc
    ea20:	c2811001 	addgt	r1, r1, #1	; 0x1
    ea24:	ebfffeef 	bl	e5e8 <_Balloc>
    ea28:	e2801014 	add	r1, r0, #20	; 0x14
    ea2c:	e58d0000 	str	r0, [sp]
    ea30:	e0810109 	add	r0, r1, r9, lsl #2
    ea34:	e1510000 	cmp	r1, r0
    ea38:	e58d0004 	str	r0, [sp, #4]
    ea3c:	2a000005 	bcs	ea58 <_multiply+0x74>
    ea40:	e1a03001 	mov	r3, r1
    ea44:	e3a02000 	mov	r2, #0	; 0x0
    ea48:	e4832004 	str	r2, [r3], #4
    ea4c:	e59d0004 	ldr	r0, [sp, #4]
    ea50:	e1500003 	cmp	r0, r3
    ea54:	8afffffb 	bhi	ea48 <_multiply+0x64>
    ea58:	e2867014 	add	r7, r6, #20	; 0x14
    ea5c:	e0875105 	add	r5, r7, r5, lsl #2
    ea60:	e284b014 	add	fp, r4, #20	; 0x14
    ea64:	e1570005 	cmp	r7, r5
    ea68:	e58d5008 	str	r5, [sp, #8]
    ea6c:	e08b8108 	add	r8, fp, r8, lsl #2
    ea70:	2a000038 	bcs	eb58 <_multiply+0x174>
    ea74:	e1a0a001 	mov	sl, r1
    ea78:	e5973000 	ldr	r3, [r7]
    ea7c:	e1a06803 	mov	r6, r3, lsl #16
    ea80:	e1a06826 	mov	r6, r6, lsr #16
    ea84:	e3560000 	cmp	r6, #0	; 0x0
    ea88:	0a000015 	beq	eae4 <_multiply+0x100>
    ea8c:	e1a0500b 	mov	r5, fp
    ea90:	e1a0400a 	mov	r4, sl
    ea94:	e3a03000 	mov	r3, #0	; 0x0
    ea98:	e594c000 	ldr	ip, [r4]
    ea9c:	e4950004 	ldr	r0, [r5], #4
    eaa0:	e1a0280c 	mov	r2, ip, lsl #16
    eaa4:	e1a01800 	mov	r1, r0, lsl #16
    eaa8:	e1a02822 	mov	r2, r2, lsr #16
    eaac:	e0832002 	add	r2, r3, r2
    eab0:	e1a01821 	mov	r1, r1, lsr #16
    eab4:	e1a00820 	mov	r0, r0, lsr #16
    eab8:	e1a0c82c 	mov	ip, ip, lsr #16
    eabc:	e02e2691 	mla	lr, r1, r6, r2
    eac0:	e023c690 	mla	r3, r0, r6, ip
    eac4:	e1580005 	cmp	r8, r5
    eac8:	e083382e 	add	r3, r3, lr, lsr #16
    eacc:	e1c430b2 	strh	r3, [r4, #2]
    ead0:	e0c4e0b4 	strh	lr, [r4], #4
    ead4:	e1a03823 	mov	r3, r3, lsr #16
    ead8:	8affffee 	bhi	ea98 <_multiply+0xb4>
    eadc:	e5843000 	str	r3, [r4]
    eae0:	e5973000 	ldr	r3, [r7]
    eae4:	e1b05823 	movs	r5, r3, lsr #16
    eae8:	0a000015 	beq	eb44 <_multiply+0x160>
    eaec:	e59ae000 	ldr	lr, [sl]
    eaf0:	e1a0c00a 	mov	ip, sl
    eaf4:	e1a0400b 	mov	r4, fp
    eaf8:	e3a00000 	mov	r0, #0	; 0x0
    eafc:	e4941004 	ldr	r1, [r4], #4
    eb00:	e59c2000 	ldr	r2, [ip]
    eb04:	e1a03801 	mov	r3, r1, lsl #16
    eb08:	e0802822 	add	r2, r0, r2, lsr #16
    eb0c:	e1a03823 	mov	r3, r3, lsr #16
    eb10:	e0202593 	mla	r0, r3, r5, r2
    eb14:	e1cce0b0 	strh	lr, [ip]
    eb18:	e1cc00b2 	strh	r0, [ip, #2]
    eb1c:	e5bc3004 	ldr	r3, [ip, #4]!
    eb20:	e1a03803 	mov	r3, r3, lsl #16
    eb24:	e1a01821 	mov	r1, r1, lsr #16
    eb28:	e1a03823 	mov	r3, r3, lsr #16
    eb2c:	e0223591 	mla	r2, r1, r5, r3
    eb30:	e1580004 	cmp	r8, r4
    eb34:	e082e820 	add	lr, r2, r0, lsr #16
    eb38:	e1a0082e 	mov	r0, lr, lsr #16
    eb3c:	8affffee 	bhi	eafc <_multiply+0x118>
    eb40:	e58ce000 	str	lr, [ip]
    eb44:	e59d2008 	ldr	r2, [sp, #8]
    eb48:	e2877004 	add	r7, r7, #4	; 0x4
    eb4c:	e1520007 	cmp	r2, r7
    eb50:	828aa004 	addhi	sl, sl, #4	; 0x4
    eb54:	8affffc7 	bhi	ea78 <_multiply+0x94>
    eb58:	e3590000 	cmp	r9, #0	; 0x0
    eb5c:	da00000b 	ble	eb90 <_multiply+0x1ac>
    eb60:	e59d0004 	ldr	r0, [sp, #4]
    eb64:	e5103004 	ldr	r3, [r0, #-4]
    eb68:	e3530000 	cmp	r3, #0	; 0x0
    eb6c:	1a000007 	bne	eb90 <_multiply+0x1ac>
    eb70:	e1a02000 	mov	r2, r0
    eb74:	ea000003 	b	eb88 <_multiply+0x1a4>
    eb78:	e5123008 	ldr	r3, [r2, #-8]
    eb7c:	e3530000 	cmp	r3, #0	; 0x0
    eb80:	e2422004 	sub	r2, r2, #4	; 0x4
    eb84:	1a000001 	bne	eb90 <_multiply+0x1ac>
    eb88:	e2599001 	subs	r9, r9, #1	; 0x1
    eb8c:	1afffff9 	bne	eb78 <_multiply+0x194>
    eb90:	e59d2000 	ldr	r2, [sp]
    eb94:	e1a00002 	mov	r0, r2
    eb98:	e5829010 	str	r9, [r2, #16]
    eb9c:	e28dd00c 	add	sp, sp, #12	; 0xc
    eba0:	e8bd8ff0 	ldmia	sp!, {r4, r5, r6, r7, r8, r9, sl, fp, pc}

0000eba4 <_i2b>:
    eba4:	e92d4010 	stmdb	sp!, {r4, lr}
    eba8:	e1a04001 	mov	r4, r1
    ebac:	e3a01001 	mov	r1, #1	; 0x1
    ebb0:	ebfffe8c 	bl	e5e8 <_Balloc>
    ebb4:	e3a03001 	mov	r3, #1	; 0x1
    ebb8:	e5803010 	str	r3, [r0, #16]
    ebbc:	e5804014 	str	r4, [r0, #20]
    ebc0:	e8bd8010 	ldmia	sp!, {r4, pc}

0000ebc4 <_multadd>:
    ebc4:	e92d41f0 	stmdb	sp!, {r4, r5, r6, r7, r8, lr}
    ebc8:	e5916010 	ldr	r6, [r1, #16]
    ebcc:	e1a07001 	mov	r7, r1
    ebd0:	e1a08000 	mov	r8, r0
    ebd4:	e1a04002 	mov	r4, r2
    ebd8:	e1a05003 	mov	r5, r3
    ebdc:	e281c014 	add	ip, r1, #20	; 0x14
    ebe0:	e3a0e000 	mov	lr, #0	; 0x0
    ebe4:	e59c1000 	ldr	r1, [ip]
    ebe8:	e1a03801 	mov	r3, r1, lsl #16
    ebec:	e1a03823 	mov	r3, r3, lsr #16
    ebf0:	e0225394 	mla	r2, r4, r3, r5
    ebf4:	e1a01821 	mov	r1, r1, lsr #16
    ebf8:	e1a03822 	mov	r3, r2, lsr #16
    ebfc:	e0203194 	mla	r0, r4, r1, r3
    ec00:	e1a02802 	mov	r2, r2, lsl #16
    ec04:	e1a02822 	mov	r2, r2, lsr #16
    ec08:	e28ee001 	add	lr, lr, #1	; 0x1
    ec0c:	e0822800 	add	r2, r2, r0, lsl #16
    ec10:	e156000e 	cmp	r6, lr
    ec14:	e48c2004 	str	r2, [ip], #4
    ec18:	e1a05820 	mov	r5, r0, lsr #16
    ec1c:	cafffff0 	bgt	ebe4 <_multadd+0x20>
    ec20:	e3550000 	cmp	r5, #0	; 0x0
    ec24:	0a000006 	beq	ec44 <_multadd+0x80>
    ec28:	e5973008 	ldr	r3, [r7, #8]
    ec2c:	e1560003 	cmp	r6, r3
    ec30:	aa000005 	bge	ec4c <_multadd+0x88>
    ec34:	e2862001 	add	r2, r6, #1	; 0x1
    ec38:	e0873106 	add	r3, r7, r6, lsl #2
    ec3c:	e5835014 	str	r5, [r3, #20]
    ec40:	e5872010 	str	r2, [r7, #16]
    ec44:	e1a00007 	mov	r0, r7
    ec48:	e8bd81f0 	ldmia	sp!, {r4, r5, r6, r7, r8, pc}
    ec4c:	e5971004 	ldr	r1, [r7, #4]
    ec50:	e1a00008 	mov	r0, r8
    ec54:	e2811001 	add	r1, r1, #1	; 0x1
    ec58:	ebfffe62 	bl	e5e8 <_Balloc>
    ec5c:	e5972010 	ldr	r2, [r7, #16]
    ec60:	e1a02102 	mov	r2, r2, lsl #2
    ec64:	e287100c 	add	r1, r7, #12	; 0xc
    ec68:	e1a04000 	mov	r4, r0
    ec6c:	e2822008 	add	r2, r2, #8	; 0x8
    ec70:	e280000c 	add	r0, r0, #12	; 0xc
    ec74:	ebfffd23 	bl	e108 <memcpy>
    ec78:	e1a01007 	mov	r1, r7
    ec7c:	e1a00008 	mov	r0, r8
    ec80:	ebfffd88 	bl	e2a8 <_Bfree>
    ec84:	e1a07004 	mov	r7, r4
    ec88:	eaffffe9 	b	ec34 <_multadd+0x70>

0000ec8c <_pow5mult>:
    ec8c:	e92d41f0 	stmdb	sp!, {r4, r5, r6, r7, r8, lr}
    ec90:	e1a04002 	mov	r4, r2
    ec94:	e2122003 	ands	r2, r2, #3	; 0x3
    ec98:	e1a07000 	mov	r7, r0
    ec9c:	e1a08001 	mov	r8, r1
    eca0:	1a000025 	bne	ed3c <_pow5mult+0xb0>
    eca4:	e1b06144 	movs	r6, r4, asr #2
    eca8:	0a00001c 	beq	ed20 <_pow5mult+0x94>
    ecac:	e5975048 	ldr	r5, [r7, #72]
    ecb0:	e3550000 	cmp	r5, #0	; 0x0
    ecb4:	1a000009 	bne	ece0 <_pow5mult+0x54>
    ecb8:	ea000026 	b	ed58 <_pow5mult+0xcc>
    ecbc:	e1b060c6 	movs	r6, r6, asr #1
    ecc0:	e1a01005 	mov	r1, r5
    ecc4:	e1a02005 	mov	r2, r5
    ecc8:	e1a00007 	mov	r0, r7
    eccc:	0a000013 	beq	ed20 <_pow5mult+0x94>
    ecd0:	e5954000 	ldr	r4, [r5]
    ecd4:	e3540000 	cmp	r4, #0	; 0x0
    ecd8:	0a000012 	beq	ed28 <_pow5mult+0x9c>
    ecdc:	e1a05004 	mov	r5, r4
    ece0:	e3160001 	tst	r6, #1	; 0x1
    ece4:	e1a02005 	mov	r2, r5
    ece8:	e1a00007 	mov	r0, r7
    ecec:	e1a01008 	mov	r1, r8
    ecf0:	0afffff1 	beq	ecbc <_pow5mult+0x30>
    ecf4:	ebffff3a 	bl	e9e4 <_multiply>
    ecf8:	e1a01008 	mov	r1, r8
    ecfc:	e1a04000 	mov	r4, r0
    ed00:	e1a00007 	mov	r0, r7
    ed04:	ebfffd67 	bl	e2a8 <_Bfree>
    ed08:	e1b060c6 	movs	r6, r6, asr #1
    ed0c:	e1a08004 	mov	r8, r4
    ed10:	e1a01005 	mov	r1, r5
    ed14:	e1a02005 	mov	r2, r5
    ed18:	e1a00007 	mov	r0, r7
    ed1c:	1affffeb 	bne	ecd0 <_pow5mult+0x44>
    ed20:	e1a00008 	mov	r0, r8
    ed24:	e8bd81f0 	ldmia	sp!, {r4, r5, r6, r7, r8, pc}
    ed28:	ebffff2d 	bl	e9e4 <_multiply>
    ed2c:	e5850000 	str	r0, [r5]
    ed30:	e1a05000 	mov	r5, r0
    ed34:	e5804000 	str	r4, [r0]
    ed38:	eaffffe8 	b	ece0 <_pow5mult+0x54>
    ed3c:	e59f3038 	ldr	r3, [pc, #56]	; ed7c <.text+0x6d5c>
    ed40:	e0833102 	add	r3, r3, r2, lsl #2
    ed44:	e5132004 	ldr	r2, [r3, #-4]
    ed48:	e3a03000 	mov	r3, #0	; 0x0
    ed4c:	ebffff9c 	bl	ebc4 <_multadd>
    ed50:	e1a08000 	mov	r8, r0
    ed54:	eaffffd2 	b	eca4 <_pow5mult+0x18>
    ed58:	e3a01e27 	mov	r1, #624	; 0x270
    ed5c:	e2811001 	add	r1, r1, #1	; 0x1
    ed60:	e1a00007 	mov	r0, r7
    ed64:	ebffff8e 	bl	eba4 <_i2b>
    ed68:	e3a03000 	mov	r3, #0	; 0x0
    ed6c:	e1a05000 	mov	r5, r0
    ed70:	e5870048 	str	r0, [r7, #72]
    ed74:	e5803000 	str	r3, [r0]
    ed78:	eaffffd8 	b	ece0 <_pow5mult+0x54>
    ed7c:	00010990 	muleq	r1, r0, r9

0000ed80 <_s2b>:
    ed80:	e59fc0dc 	ldr	ip, [pc, #220]	; ee64 <.text+0x6e44>
    ed84:	e92d45f0 	stmdb	sp!, {r4, r5, r6, r7, r8, sl, lr}
    ed88:	e1a08003 	mov	r8, r3
    ed8c:	e2833008 	add	r3, r3, #8	; 0x8
    ed90:	e0ce439c 	smull	r4, lr, ip, r3
    ed94:	e1a03fc3 	mov	r3, r3, asr #31
    ed98:	e063c0ce 	rsb	ip, r3, lr, asr #1
    ed9c:	e35c0001 	cmp	ip, #1	; 0x1
    eda0:	e1a07001 	mov	r7, r1
    eda4:	e1a06000 	mov	r6, r0
    eda8:	e1a05002 	mov	r5, r2
    edac:	d3a01000 	movle	r1, #0	; 0x0
    edb0:	da000005 	ble	edcc <_s2b+0x4c>
    edb4:	e3a03001 	mov	r3, #1	; 0x1
    edb8:	e3a01000 	mov	r1, #0	; 0x0
    edbc:	e1a03083 	mov	r3, r3, lsl #1
    edc0:	e15c0003 	cmp	ip, r3
    edc4:	e2811001 	add	r1, r1, #1	; 0x1
    edc8:	cafffffb 	bgt	edbc <_s2b+0x3c>
    edcc:	e1a00006 	mov	r0, r6
    edd0:	ebfffe04 	bl	e5e8 <_Balloc>
    edd4:	e59d301c 	ldr	r3, [sp, #28]
    edd8:	e3550009 	cmp	r5, #9	; 0x9
    eddc:	e3a02001 	mov	r2, #1	; 0x1
    ede0:	e5802010 	str	r2, [r0, #16]
    ede4:	e5803014 	str	r3, [r0, #20]
    ede8:	d287700a 	addle	r7, r7, #10	; 0xa
    edec:	d3a02009 	movle	r2, #9	; 0x9
    edf0:	da00000d 	ble	ee2c <_s2b+0xac>
    edf4:	e287a009 	add	sl, r7, #9	; 0x9
    edf8:	e3a04009 	mov	r4, #9	; 0x9
    edfc:	e7d43007 	ldrb	r3, [r4, r7]
    ee00:	e1a01000 	mov	r1, r0
    ee04:	e2433030 	sub	r3, r3, #48	; 0x30
    ee08:	e2844001 	add	r4, r4, #1	; 0x1
    ee0c:	e1a00006 	mov	r0, r6
    ee10:	e3a0200a 	mov	r2, #10	; 0xa
    ee14:	ebffff6a 	bl	ebc4 <_multadd>
    ee18:	e1550004 	cmp	r5, r4
    ee1c:	1afffff6 	bne	edfc <_s2b+0x7c>
    ee20:	e08a3005 	add	r3, sl, r5
    ee24:	e2437008 	sub	r7, r3, #8	; 0x8
    ee28:	e1a02005 	mov	r2, r5
    ee2c:	e1580002 	cmp	r8, r2
    ee30:	d8bd85f0 	ldmleia	sp!, {r4, r5, r6, r7, r8, sl, pc}
    ee34:	e0625008 	rsb	r5, r2, r8
    ee38:	e3a04000 	mov	r4, #0	; 0x0
    ee3c:	e7d43007 	ldrb	r3, [r4, r7]
    ee40:	e1a01000 	mov	r1, r0
    ee44:	e2433030 	sub	r3, r3, #48	; 0x30
    ee48:	e2844001 	add	r4, r4, #1	; 0x1
    ee4c:	e1a00006 	mov	r0, r6
    ee50:	e3a0200a 	mov	r2, #10	; 0xa
    ee54:	ebffff5a 	bl	ebc4 <_multadd>
    ee58:	e1540005 	cmp	r4, r5
    ee5c:	1afffff6 	bne	ee3c <_s2b+0xbc>
    ee60:	e8bd85f0 	ldmia	sp!, {r4, r5, r6, r7, r8, sl, pc}
    ee64:	38e38e39 	stmccia	r3!, {r0, r3, r4, r5, r9, sl, fp, pc}^

0000ee68 <_realloc_r>:
    ee68:	e92d4ff0 	stmdb	sp!, {r4, r5, r6, r7, r8, r9, sl, fp, lr}
    ee6c:	e251a000 	subs	sl, r1, #0	; 0x0
    ee70:	e24dd00c 	sub	sp, sp, #12	; 0xc
    ee74:	e1a06002 	mov	r6, r2
    ee78:	e58d0000 	str	r0, [sp]
    ee7c:	0a00008d 	beq	f0b8 <_realloc_r+0x250>
    ee80:	ebfffd06 	bl	e2a0 <__malloc_lock>
    ee84:	e286300b 	add	r3, r6, #11	; 0xb
    ee88:	e3530016 	cmp	r3, #22	; 0x16
    ee8c:	83c3e007 	bichi	lr, r3, #7	; 0x7
    ee90:	93a0e010 	movls	lr, #16	; 0x10
    ee94:	958de004 	strls	lr, [sp, #4]
    ee98:	858de004 	strhi	lr, [sp, #4]
    ee9c:	e59d0004 	ldr	r0, [sp, #4]
    eea0:	93a03000 	movls	r3, #0	; 0x0
    eea4:	81a03fae 	movhi	r3, lr, lsr #31
    eea8:	e1500006 	cmp	r0, r6
    eeac:	33833001 	orrcc	r3, r3, #1	; 0x1
    eeb0:	e24a5008 	sub	r5, sl, #8	; 0x8
    eeb4:	e3530000 	cmp	r3, #0	; 0x0
    eeb8:	e5959004 	ldr	r9, [r5, #4]
    eebc:	1a0000d0 	bne	f204 <_realloc_r+0x39c>
    eec0:	e3c94003 	bic	r4, r9, #3	; 0x3
    eec4:	e154000e 	cmp	r4, lr
    eec8:	a1a08005 	movge	r8, r5
    eecc:	a1a07004 	movge	r7, r4
    eed0:	a1a0c008 	movge	ip, r8
    eed4:	a2884008 	addge	r4, r8, #8	; 0x8
    eed8:	aa00004a 	bge	f008 <_realloc_r+0x1a0>
    eedc:	e59f25b8 	ldr	r2, [pc, #1464]	; f49c <.text+0x747c>
    eee0:	e592b008 	ldr	fp, [r2, #8]
    eee4:	e0850004 	add	r0, r5, r4
    eee8:	e150000b 	cmp	r0, fp
    eeec:	e1a08005 	mov	r8, r5
    eef0:	0a0000c8 	beq	f218 <_realloc_r+0x3b0>
    eef4:	e5901004 	ldr	r1, [r0, #4]
    eef8:	e3c13001 	bic	r3, r1, #1	; 0x1
    eefc:	e0833000 	add	r3, r3, r0
    ef00:	e5932004 	ldr	r2, [r3, #4]
    ef04:	e3120001 	tst	r2, #1	; 0x1
    ef08:	0a00005f 	beq	f08c <_realloc_r+0x224>
    ef0c:	e3a0c000 	mov	ip, #0	; 0x0
    ef10:	e1a0000c 	mov	r0, ip
    ef14:	e3190001 	tst	r9, #1	; 0x1
    ef18:	1a00006a 	bne	f0c8 <_realloc_r+0x260>
    ef1c:	e5953000 	ldr	r3, [r5]
    ef20:	e0633005 	rsb	r3, r3, r5
    ef24:	e5932004 	ldr	r2, [r3, #4]
    ef28:	e3500000 	cmp	r0, #0	; 0x0
    ef2c:	e58d3008 	str	r3, [sp, #8]
    ef30:	e3c22003 	bic	r2, r2, #3	; 0x3
    ef34:	0a000083 	beq	f148 <_realloc_r+0x2e0>
    ef38:	e150000b 	cmp	r0, fp
    ef3c:	0a0000f9 	beq	f328 <_realloc_r+0x4c0>
    ef40:	e0849002 	add	r9, r4, r2
    ef44:	e08c7009 	add	r7, ip, r9
    ef48:	e157000e 	cmp	r7, lr
    ef4c:	ba00007e 	blt	f14c <_realloc_r+0x2e4>
    ef50:	e2802008 	add	r2, r0, #8	; 0x8
    ef54:	e892000c 	ldmia	r2, {r2, r3}
    ef58:	e5832008 	str	r2, [r3, #8]
    ef5c:	e582300c 	str	r3, [r2, #12]
    ef60:	e59d3008 	ldr	r3, [sp, #8]
    ef64:	e2444004 	sub	r4, r4, #4	; 0x4
    ef68:	e593200c 	ldr	r2, [r3, #12]
    ef6c:	e59d8008 	ldr	r8, [sp, #8]
    ef70:	e5933008 	ldr	r3, [r3, #8]
    ef74:	e3540024 	cmp	r4, #36	; 0x24
    ef78:	e5823008 	str	r3, [r2, #8]
    ef7c:	e583200c 	str	r2, [r3, #12]
    ef80:	e2885008 	add	r5, r8, #8	; 0x8
    ef84:	8a0000d4 	bhi	f2dc <_realloc_r+0x474>
    ef88:	e3540013 	cmp	r4, #19	; 0x13
    ef8c:	e1a0c00a 	mov	ip, sl
    ef90:	e1a0e005 	mov	lr, r5
    ef94:	9a000011 	bls	efe0 <_realloc_r+0x178>
    ef98:	e1a0000a 	mov	r0, sl
    ef9c:	e4903004 	ldr	r3, [r0], #4
    efa0:	e5883008 	str	r3, [r8, #8]
    efa4:	e59a2004 	ldr	r2, [sl, #4]
    efa8:	e354001b 	cmp	r4, #27	; 0x1b
    efac:	e588200c 	str	r2, [r8, #12]
    efb0:	e288e010 	add	lr, r8, #16	; 0x10
    efb4:	e280c004 	add	ip, r0, #4	; 0x4
    efb8:	9a000008 	bls	efe0 <_realloc_r+0x178>
    efbc:	e5903004 	ldr	r3, [r0, #4]
    efc0:	e5883010 	str	r3, [r8, #16]
    efc4:	e59c2004 	ldr	r2, [ip, #4]
    efc8:	e28c3004 	add	r3, ip, #4	; 0x4
    efcc:	e3540024 	cmp	r4, #36	; 0x24
    efd0:	e5882014 	str	r2, [r8, #20]
    efd4:	e288e018 	add	lr, r8, #24	; 0x18
    efd8:	e283c004 	add	ip, r3, #4	; 0x4
    efdc:	0a000119 	beq	f448 <_realloc_r+0x5e0>
    efe0:	e1a0200c 	mov	r2, ip
    efe4:	e4920004 	ldr	r0, [r2], #4
    efe8:	e1a0100e 	mov	r1, lr
    efec:	e4810004 	str	r0, [r1], #4
    eff0:	e59c3004 	ldr	r3, [ip, #4]
    eff4:	e58e3004 	str	r3, [lr, #4]
    eff8:	e5920004 	ldr	r0, [r2, #4]
    effc:	e59dc008 	ldr	ip, [sp, #8]
    f000:	e5810004 	str	r0, [r1, #4]
    f004:	e1a04005 	mov	r4, r5
    f008:	e59d1004 	ldr	r1, [sp, #4]
    f00c:	e0610007 	rsb	r0, r1, r7
    f010:	e350000f 	cmp	r0, #15	; 0xf
    f014:	8a00000d 	bhi	f050 <_realloc_r+0x1e8>
    f018:	e59c3004 	ldr	r3, [ip, #4]
    f01c:	e2033001 	and	r3, r3, #1	; 0x1
    f020:	e1873003 	orr	r3, r7, r3
    f024:	e58c3004 	str	r3, [ip, #4]
    f028:	e0872008 	add	r2, r7, r8
    f02c:	e5923004 	ldr	r3, [r2, #4]
    f030:	e3833001 	orr	r3, r3, #1	; 0x1
    f034:	e5823004 	str	r3, [r2, #4]
    f038:	e59d0000 	ldr	r0, [sp]
    f03c:	ebfffc98 	bl	e2a4 <__malloc_unlock>
    f040:	e1a06004 	mov	r6, r4
    f044:	e1a00006 	mov	r0, r6
    f048:	e28dd00c 	add	sp, sp, #12	; 0xc
    f04c:	e8bd8ff0 	ldmia	sp!, {r4, r5, r6, r7, r8, r9, sl, fp, pc}
    f050:	e59c3004 	ldr	r3, [ip, #4]
    f054:	e2033001 	and	r3, r3, #1	; 0x1
    f058:	e1813003 	orr	r3, r1, r3
    f05c:	e3802001 	orr	r2, r0, #1	; 0x1
    f060:	e0811008 	add	r1, r1, r8
    f064:	e58c3004 	str	r3, [ip, #4]
    f068:	e5812004 	str	r2, [r1, #4]
    f06c:	e0810000 	add	r0, r1, r0
    f070:	e5903004 	ldr	r3, [r0, #4]
    f074:	e3833001 	orr	r3, r3, #1	; 0x1
    f078:	e5803004 	str	r3, [r0, #4]
    f07c:	e2811008 	add	r1, r1, #8	; 0x8
    f080:	e59d0000 	ldr	r0, [sp]
    f084:	ebfff791 	bl	ced0 <_free_r>
    f088:	eaffffea 	b	f038 <_realloc_r+0x1d0>
    f08c:	e3c1c003 	bic	ip, r1, #3	; 0x3
    f090:	e084700c 	add	r7, r4, ip
    f094:	e15e0007 	cmp	lr, r7
    f098:	caffff9d 	bgt	ef14 <_realloc_r+0xac>
    f09c:	e2802008 	add	r2, r0, #8	; 0x8
    f0a0:	e892000c 	ldmia	r2, {r2, r3}
    f0a4:	e1a0c005 	mov	ip, r5
    f0a8:	e2854008 	add	r4, r5, #8	; 0x8
    f0ac:	e5832008 	str	r2, [r3, #8]
    f0b0:	e582300c 	str	r3, [r2, #12]
    f0b4:	eaffffd3 	b	f008 <_realloc_r+0x1a0>
    f0b8:	e1a01002 	mov	r1, r2
    f0bc:	e28dd00c 	add	sp, sp, #12	; 0xc
    f0c0:	e8bd4ff0 	ldmia	sp!, {r4, r5, r6, r7, r8, r9, sl, fp, lr}
    f0c4:	eafff9f4 	b	d89c <_malloc_r>
    f0c8:	e1a01006 	mov	r1, r6
    f0cc:	e59d0000 	ldr	r0, [sp]
    f0d0:	ebfff9f1 	bl	d89c <_malloc_r>
    f0d4:	e2506000 	subs	r6, r0, #0	; 0x0
    f0d8:	0a000017 	beq	f13c <_realloc_r+0x2d4>
    f0dc:	e5953004 	ldr	r3, [r5, #4]
    f0e0:	e3c33001 	bic	r3, r3, #1	; 0x1
    f0e4:	e0853003 	add	r3, r5, r3
    f0e8:	e2462008 	sub	r2, r6, #8	; 0x8
    f0ec:	e1520003 	cmp	r2, r3
    f0f0:	0a0000c9 	beq	f41c <_realloc_r+0x5b4>
    f0f4:	e2441004 	sub	r1, r4, #4	; 0x4
    f0f8:	e3510024 	cmp	r1, #36	; 0x24
    f0fc:	8a000085 	bhi	f318 <_realloc_r+0x4b0>
    f100:	e3510013 	cmp	r1, #19	; 0x13
    f104:	e1a0c00a 	mov	ip, sl
    f108:	e1a0e006 	mov	lr, r6
    f10c:	8a000057 	bhi	f270 <_realloc_r+0x408>
    f110:	e1a0000c 	mov	r0, ip
    f114:	e4902004 	ldr	r2, [r0], #4
    f118:	e1a0100e 	mov	r1, lr
    f11c:	e4812004 	str	r2, [r1], #4
    f120:	e59c3004 	ldr	r3, [ip, #4]
    f124:	e58e3004 	str	r3, [lr, #4]
    f128:	e5902004 	ldr	r2, [r0, #4]
    f12c:	e5812004 	str	r2, [r1, #4]
    f130:	e1a0100a 	mov	r1, sl
    f134:	e59d0000 	ldr	r0, [sp]
    f138:	ebfff764 	bl	ced0 <_free_r>
    f13c:	e59d0000 	ldr	r0, [sp]
    f140:	ebfffc57 	bl	e2a4 <__malloc_unlock>
    f144:	eaffffbe 	b	f044 <_realloc_r+0x1dc>
    f148:	e0849002 	add	r9, r4, r2
    f14c:	e159000e 	cmp	r9, lr
    f150:	baffffdc 	blt	f0c8 <_realloc_r+0x260>
    f154:	e59d0008 	ldr	r0, [sp, #8]
    f158:	e2444004 	sub	r4, r4, #4	; 0x4
    f15c:	e590200c 	ldr	r2, [r0, #12]
    f160:	e5903008 	ldr	r3, [r0, #8]
    f164:	e3540024 	cmp	r4, #36	; 0x24
    f168:	e1a08000 	mov	r8, r0
    f16c:	e5823008 	str	r3, [r2, #8]
    f170:	e583200c 	str	r2, [r3, #12]
    f174:	e2805008 	add	r5, r0, #8	; 0x8
    f178:	8a00005e 	bhi	f2f8 <_realloc_r+0x490>
    f17c:	e3540013 	cmp	r4, #19	; 0x13
    f180:	e1a0c00a 	mov	ip, sl
    f184:	e1a0e005 	mov	lr, r5
    f188:	9a000011 	bls	f1d4 <_realloc_r+0x36c>
    f18c:	e1a0000a 	mov	r0, sl
    f190:	e4903004 	ldr	r3, [r0], #4
    f194:	e5883008 	str	r3, [r8, #8]
    f198:	e59a2004 	ldr	r2, [sl, #4]
    f19c:	e354001b 	cmp	r4, #27	; 0x1b
    f1a0:	e588200c 	str	r2, [r8, #12]
    f1a4:	e288e010 	add	lr, r8, #16	; 0x10
    f1a8:	e280c004 	add	ip, r0, #4	; 0x4
    f1ac:	9a000008 	bls	f1d4 <_realloc_r+0x36c>
    f1b0:	e5903004 	ldr	r3, [r0, #4]
    f1b4:	e5883010 	str	r3, [r8, #16]
    f1b8:	e59c2004 	ldr	r2, [ip, #4]
    f1bc:	e28c3004 	add	r3, ip, #4	; 0x4
    f1c0:	e3540024 	cmp	r4, #36	; 0x24
    f1c4:	e5882014 	str	r2, [r8, #20]
    f1c8:	e288e018 	add	lr, r8, #24	; 0x18
    f1cc:	e283c004 	add	ip, r3, #4	; 0x4
    f1d0:	0a0000a3 	beq	f464 <_realloc_r+0x5fc>
    f1d4:	e1a0200c 	mov	r2, ip
    f1d8:	e4921004 	ldr	r1, [r2], #4
    f1dc:	e1a0000e 	mov	r0, lr
    f1e0:	e4801004 	str	r1, [r0], #4
    f1e4:	e59c3004 	ldr	r3, [ip, #4]
    f1e8:	e58e3004 	str	r3, [lr, #4]
    f1ec:	e59dc008 	ldr	ip, [sp, #8]
    f1f0:	e5921004 	ldr	r1, [r2, #4]
    f1f4:	e1a07009 	mov	r7, r9
    f1f8:	e1a04005 	mov	r4, r5
    f1fc:	e5801004 	str	r1, [r0, #4]
    f200:	eaffff80 	b	f008 <_realloc_r+0x1a0>
    f204:	e59d1000 	ldr	r1, [sp]
    f208:	e3a0300c 	mov	r3, #12	; 0xc
    f20c:	e3a06000 	mov	r6, #0	; 0x0
    f210:	e5813000 	str	r3, [r1]
    f214:	eaffff8a 	b	f044 <_realloc_r+0x1dc>
    f218:	e5903004 	ldr	r3, [r0, #4]
    f21c:	e59d1004 	ldr	r1, [sp, #4]
    f220:	e3c3c003 	bic	ip, r3, #3	; 0x3
    f224:	e084200c 	add	r2, r4, ip
    f228:	e2813010 	add	r3, r1, #16	; 0x10
    f22c:	e1520003 	cmp	r2, r3
    f230:	baffff37 	blt	ef14 <_realloc_r+0xac>
    f234:	e0613002 	rsb	r3, r1, r2
    f238:	e3833001 	orr	r3, r3, #1	; 0x1
    f23c:	e0851001 	add	r1, r5, r1
    f240:	e5813004 	str	r3, [r1, #4]
    f244:	e5952004 	ldr	r2, [r5, #4]
    f248:	e59d3004 	ldr	r3, [sp, #4]
    f24c:	e2022001 	and	r2, r2, #1	; 0x1
    f250:	e1832002 	orr	r2, r3, r2
    f254:	e5852004 	str	r2, [r5, #4]
    f258:	e59f223c 	ldr	r2, [pc, #572]	; f49c <.text+0x747c>
    f25c:	e59d0000 	ldr	r0, [sp]
    f260:	e5821008 	str	r1, [r2, #8]
    f264:	ebfffc0e 	bl	e2a4 <__malloc_unlock>
    f268:	e2856008 	add	r6, r5, #8	; 0x8
    f26c:	eaffff74 	b	f044 <_realloc_r+0x1dc>
    f270:	e1a0400a 	mov	r4, sl
    f274:	e4943004 	ldr	r3, [r4], #4
    f278:	e1a00006 	mov	r0, r6
    f27c:	e4803004 	str	r3, [r0], #4
    f280:	e59a2004 	ldr	r2, [sl, #4]
    f284:	e351001b 	cmp	r1, #27	; 0x1b
    f288:	e5862004 	str	r2, [r6, #4]
    f28c:	e280e004 	add	lr, r0, #4	; 0x4
    f290:	e284c004 	add	ip, r4, #4	; 0x4
    f294:	9affff9d 	bls	f110 <_realloc_r+0x2a8>
    f298:	e5943004 	ldr	r3, [r4, #4]
    f29c:	e5803004 	str	r3, [r0, #4]
    f2a0:	e59c2004 	ldr	r2, [ip, #4]
    f2a4:	e3510024 	cmp	r1, #36	; 0x24
    f2a8:	e28c3004 	add	r3, ip, #4	; 0x4
    f2ac:	e28e1004 	add	r1, lr, #4	; 0x4
    f2b0:	e58e2004 	str	r2, [lr, #4]
    f2b4:	e283c004 	add	ip, r3, #4	; 0x4
    f2b8:	e281e004 	add	lr, r1, #4	; 0x4
    f2bc:	1affff93 	bne	f110 <_realloc_r+0x2a8>
    f2c0:	e5933004 	ldr	r3, [r3, #4]
    f2c4:	e5813004 	str	r3, [r1, #4]
    f2c8:	e59c2004 	ldr	r2, [ip, #4]
    f2cc:	e28cc008 	add	ip, ip, #8	; 0x8
    f2d0:	e58e2004 	str	r2, [lr, #4]
    f2d4:	e28ee008 	add	lr, lr, #8	; 0x8
    f2d8:	eaffff8c 	b	f110 <_realloc_r+0x2a8>
    f2dc:	e1a02004 	mov	r2, r4
    f2e0:	e1a0100a 	mov	r1, sl
    f2e4:	e1a00005 	mov	r0, r5
    f2e8:	ebfffbae 	bl	e1a8 <memmove>
    f2ec:	e1a04005 	mov	r4, r5
    f2f0:	e1a0c008 	mov	ip, r8
    f2f4:	eaffff43 	b	f008 <_realloc_r+0x1a0>
    f2f8:	e1a02004 	mov	r2, r4
    f2fc:	e1a0100a 	mov	r1, sl
    f300:	e1a00005 	mov	r0, r5
    f304:	ebfffba7 	bl	e1a8 <memmove>
    f308:	e1a07009 	mov	r7, r9
    f30c:	e1a04005 	mov	r4, r5
    f310:	e1a0c008 	mov	ip, r8
    f314:	eaffff3b 	b	f008 <_realloc_r+0x1a0>
    f318:	e1a02001 	mov	r2, r1
    f31c:	e1a0100a 	mov	r1, sl
    f320:	ebfffba0 	bl	e1a8 <memmove>
    f324:	eaffff81 	b	f130 <_realloc_r+0x2c8>
    f328:	e59d0004 	ldr	r0, [sp, #4]
    f32c:	e0849002 	add	r9, r4, r2
    f330:	e08c7009 	add	r7, ip, r9
    f334:	e2803010 	add	r3, r0, #16	; 0x10
    f338:	e1570003 	cmp	r7, r3
    f33c:	baffff82 	blt	f14c <_realloc_r+0x2e4>
    f340:	e59d1008 	ldr	r1, [sp, #8]
    f344:	e2444004 	sub	r4, r4, #4	; 0x4
    f348:	e591200c 	ldr	r2, [r1, #12]
    f34c:	e5913008 	ldr	r3, [r1, #8]
    f350:	e3540024 	cmp	r4, #36	; 0x24
    f354:	e5823008 	str	r3, [r2, #8]
    f358:	e583200c 	str	r2, [r3, #12]
    f35c:	e2816008 	add	r6, r1, #8	; 0x8
    f360:	8a000033 	bhi	f434 <_realloc_r+0x5cc>
    f364:	e3540013 	cmp	r4, #19	; 0x13
    f368:	e1a0c00a 	mov	ip, sl
    f36c:	e1a0e006 	mov	lr, r6
    f370:	9a000011 	bls	f3bc <_realloc_r+0x554>
    f374:	e1a0000a 	mov	r0, sl
    f378:	e4903004 	ldr	r3, [r0], #4
    f37c:	e5813008 	str	r3, [r1, #8]
    f380:	e59a2004 	ldr	r2, [sl, #4]
    f384:	e354001b 	cmp	r4, #27	; 0x1b
    f388:	e581200c 	str	r2, [r1, #12]
    f38c:	e281e010 	add	lr, r1, #16	; 0x10
    f390:	e280c004 	add	ip, r0, #4	; 0x4
    f394:	9a000008 	bls	f3bc <_realloc_r+0x554>
    f398:	e5903004 	ldr	r3, [r0, #4]
    f39c:	e5813010 	str	r3, [r1, #16]
    f3a0:	e59c2004 	ldr	r2, [ip, #4]
    f3a4:	e28c3004 	add	r3, ip, #4	; 0x4
    f3a8:	e3540024 	cmp	r4, #36	; 0x24
    f3ac:	e5812014 	str	r2, [r1, #20]
    f3b0:	e281e018 	add	lr, r1, #24	; 0x18
    f3b4:	e283c004 	add	ip, r3, #4	; 0x4
    f3b8:	0a000030 	beq	f480 <_realloc_r+0x618>
    f3bc:	e1a0000c 	mov	r0, ip
    f3c0:	e4902004 	ldr	r2, [r0], #4
    f3c4:	e1a0100e 	mov	r1, lr
    f3c8:	e4812004 	str	r2, [r1], #4
    f3cc:	e59c3004 	ldr	r3, [ip, #4]
    f3d0:	e58e3004 	str	r3, [lr, #4]
    f3d4:	e5902004 	ldr	r2, [r0, #4]
    f3d8:	e5812004 	str	r2, [r1, #4]
    f3dc:	e59d2004 	ldr	r2, [sp, #4]
    f3e0:	e59d0008 	ldr	r0, [sp, #8]
    f3e4:	e0623007 	rsb	r3, r2, r7
    f3e8:	e0801002 	add	r1, r0, r2
    f3ec:	e3833001 	orr	r3, r3, #1	; 0x1
    f3f0:	e5813004 	str	r3, [r1, #4]
    f3f4:	e5902004 	ldr	r2, [r0, #4]
    f3f8:	e59d3004 	ldr	r3, [sp, #4]
    f3fc:	e2022001 	and	r2, r2, #1	; 0x1
    f400:	e1832002 	orr	r2, r3, r2
    f404:	e5802004 	str	r2, [r0, #4]
    f408:	e59f208c 	ldr	r2, [pc, #140]	; f49c <.text+0x747c>
    f40c:	e59d0000 	ldr	r0, [sp]
    f410:	e5821008 	str	r1, [r2, #8]
    f414:	ebfffba2 	bl	e2a4 <__malloc_unlock>
    f418:	eaffff09 	b	f044 <_realloc_r+0x1dc>
    f41c:	e5923004 	ldr	r3, [r2, #4]
    f420:	e3c33003 	bic	r3, r3, #3	; 0x3
    f424:	e0847003 	add	r7, r4, r3
    f428:	e1a0c005 	mov	ip, r5
    f42c:	e2854008 	add	r4, r5, #8	; 0x8
    f430:	eafffef4 	b	f008 <_realloc_r+0x1a0>
    f434:	e1a0100a 	mov	r1, sl
    f438:	e1a02004 	mov	r2, r4
    f43c:	e1a00006 	mov	r0, r6
    f440:	ebfffb58 	bl	e1a8 <memmove>
    f444:	eaffffe4 	b	f3dc <_realloc_r+0x574>
    f448:	e5933004 	ldr	r3, [r3, #4]
    f44c:	e5883018 	str	r3, [r8, #24]
    f450:	e59c2004 	ldr	r2, [ip, #4]
    f454:	e288e020 	add	lr, r8, #32	; 0x20
    f458:	e28cc008 	add	ip, ip, #8	; 0x8
    f45c:	e588201c 	str	r2, [r8, #28]
    f460:	eafffede 	b	efe0 <_realloc_r+0x178>
    f464:	e5933004 	ldr	r3, [r3, #4]
    f468:	e5883018 	str	r3, [r8, #24]
    f46c:	e59c2004 	ldr	r2, [ip, #4]
    f470:	e288e020 	add	lr, r8, #32	; 0x20
    f474:	e28cc008 	add	ip, ip, #8	; 0x8
    f478:	e588201c 	str	r2, [r8, #28]
    f47c:	eaffff54 	b	f1d4 <_realloc_r+0x36c>
    f480:	e5933004 	ldr	r3, [r3, #4]
    f484:	e5813018 	str	r3, [r1, #24]
    f488:	e59c2004 	ldr	r2, [ip, #4]
    f48c:	e281e020 	add	lr, r1, #32	; 0x20
    f490:	e28cc008 	add	ip, ip, #8	; 0x8
    f494:	e581201c 	str	r2, [r1, #28]
    f498:	eaffffc7 	b	f3bc <_realloc_r+0x554>
    f49c:	00011014 	andeq	r1, r1, r4, lsl r0

0000f4a0 <isinf>:
    f4a0:	e2612000 	rsb	r2, r1, #0	; 0x0
    f4a4:	e1822001 	orr	r2, r2, r1
    f4a8:	e3c03102 	bic	r3, r0, #-2147483648	; 0x80000000
    f4ac:	e3a0047f 	mov	r0, #2130706432	; 0x7f000000
    f4b0:	e1833fa2 	orr	r3, r3, r2, lsr #31
    f4b4:	e280060f 	add	r0, r0, #15728640	; 0xf00000
    f4b8:	e0630000 	rsb	r0, r3, r0
    f4bc:	e52d4004 	str	r4, [sp, #-4]!
    f4c0:	e2602000 	rsb	r2, r0, #0	; 0x0
    f4c4:	e1800002 	orr	r0, r0, r2
    f4c8:	e1a00fa0 	mov	r0, r0, lsr #31
    f4cc:	e1a04001 	mov	r4, r1
    f4d0:	e2600001 	rsb	r0, r0, #1	; 0x1
    f4d4:	e8bd0010 	ldmia	sp!, {r4}
    f4d8:	e12fff1e 	bx	lr

0000f4dc <isnan>:
    f4dc:	e52d4004 	str	r4, [sp, #-4]!
    f4e0:	e2612000 	rsb	r2, r1, #0	; 0x0
    f4e4:	e1822001 	orr	r2, r2, r1
    f4e8:	e3c03102 	bic	r3, r0, #-2147483648	; 0x80000000
    f4ec:	e3a0047f 	mov	r0, #2130706432	; 0x7f000000
    f4f0:	e1833fa2 	orr	r3, r3, r2, lsr #31
    f4f4:	e280060f 	add	r0, r0, #15728640	; 0xf00000
    f4f8:	e0630000 	rsb	r0, r3, r0
    f4fc:	e1a04001 	mov	r4, r1
    f500:	e1a00fa0 	mov	r0, r0, lsr #31
    f504:	e8bd0010 	ldmia	sp!, {r4}
    f508:	e12fff1e 	bx	lr

0000f50c <_sbrk_r>:
    f50c:	e92d4030 	stmdb	sp!, {r4, r5, lr}
    f510:	e59f4028 	ldr	r4, [pc, #40]	; f540 <.text+0x7520>
    f514:	e3a03000 	mov	r3, #0	; 0x0
    f518:	e1a05000 	mov	r5, r0
    f51c:	e1a00001 	mov	r0, r1
    f520:	e5843000 	str	r3, [r4]
    f524:	ebffe3ee 	bl	84e4 <_sbrk>
    f528:	e3700001 	cmn	r0, #1	; 0x1
    f52c:	18bd8030 	ldmneia	sp!, {r4, r5, pc}
    f530:	e5943000 	ldr	r3, [r4]
    f534:	e3530000 	cmp	r3, #0	; 0x0
    f538:	15853000 	strne	r3, [r5]
    f53c:	e8bd8030 	ldmia	sp!, {r4, r5, pc}
    f540:	00011534 	andeq	r1, r1, r4, lsr r5

0000f544 <__sclose>:
    f544:	e59f3008 	ldr	r3, [pc, #8]	; f554 <.text+0x7534>
    f548:	e1d010fe 	ldrsh	r1, [r0, #14]
    f54c:	e5930000 	ldr	r0, [r3]
    f550:	ea0000cb 	b	f884 <_close_r>
    f554:	00010c00 	andeq	r0, r1, r0, lsl #24

0000f558 <__sseek>:
    f558:	e1a03002 	mov	r3, r2
    f55c:	e59f2038 	ldr	r2, [pc, #56]	; f59c <.text+0x757c>
    f560:	e92d4010 	stmdb	sp!, {r4, lr}
    f564:	e1a04000 	mov	r4, r0
    f568:	e5920000 	ldr	r0, [r2]
    f56c:	e1a02001 	mov	r2, r1
    f570:	e1d410fe 	ldrsh	r1, [r4, #14]
    f574:	eb000129 	bl	fa20 <_lseek_r>
    f578:	e3700001 	cmn	r0, #1	; 0x1
    f57c:	01d430bc 	ldreqh	r3, [r4, #12]
    f580:	11d430bc 	ldrneh	r3, [r4, #12]
    f584:	03c33a01 	biceq	r3, r3, #4096	; 0x1000
    f588:	13833a01 	orrne	r3, r3, #4096	; 0x1000
    f58c:	01c430bc 	streqh	r3, [r4, #12]
    f590:	11c430bc 	strneh	r3, [r4, #12]
    f594:	15840050 	strne	r0, [r4, #80]
    f598:	e8bd8010 	ldmia	sp!, {r4, pc}
    f59c:	00010c00 	andeq	r0, r1, r0, lsl #24

0000f5a0 <__swrite>:
    f5a0:	e1d0c0bc 	ldrh	ip, [r0, #12]
    f5a4:	e31c0c01 	tst	ip, #256	; 0x100
    f5a8:	e92d40f0 	stmdb	sp!, {r4, r5, r6, r7, lr}
    f5ac:	e3a03002 	mov	r3, #2	; 0x2
    f5b0:	e59f7044 	ldr	r7, [pc, #68]	; f5fc <.text+0x75dc>
    f5b4:	e1a06002 	mov	r6, r2
    f5b8:	e1a04000 	mov	r4, r0
    f5bc:	e1a05001 	mov	r5, r1
    f5c0:	e3a02000 	mov	r2, #0	; 0x0
    f5c4:	059f7030 	ldreq	r7, [pc, #48]	; f5fc <.text+0x75dc>
    f5c8:	0a000003 	beq	f5dc <__swrite+0x3c>
    f5cc:	e5970000 	ldr	r0, [r7]
    f5d0:	e1d410fe 	ldrsh	r1, [r4, #14]
    f5d4:	eb000111 	bl	fa20 <_lseek_r>
    f5d8:	e1d4c0bc 	ldrh	ip, [r4, #12]
    f5dc:	e5970000 	ldr	r0, [r7]
    f5e0:	e1d410fe 	ldrsh	r1, [r4, #14]
    f5e4:	e3ccca01 	bic	ip, ip, #4096	; 0x1000
    f5e8:	e1a02005 	mov	r2, r5
    f5ec:	e1a03006 	mov	r3, r6
    f5f0:	e1c4c0bc 	strh	ip, [r4, #12]
    f5f4:	e8bd40f0 	ldmia	sp!, {r4, r5, r6, r7, lr}
    f5f8:	ea000069 	b	f7a4 <_write_r>
    f5fc:	00010c00 	andeq	r0, r1, r0, lsl #24

0000f600 <__sread>:
    f600:	e1a03002 	mov	r3, r2
    f604:	e59f2034 	ldr	r2, [pc, #52]	; f640 <.text+0x7620>
    f608:	e92d4010 	stmdb	sp!, {r4, lr}
    f60c:	e1a04000 	mov	r4, r0
    f610:	e5920000 	ldr	r0, [r2]
    f614:	e1a02001 	mov	r2, r1
    f618:	e1d410fe 	ldrsh	r1, [r4, #14]
    f61c:	eb00010f 	bl	fa60 <_read_r>
    f620:	e3500000 	cmp	r0, #0	; 0x0
    f624:	a5943050 	ldrge	r3, [r4, #80]
    f628:	b1d430bc 	ldrlth	r3, [r4, #12]
    f62c:	a0833000 	addge	r3, r3, r0
    f630:	b3c33a01 	biclt	r3, r3, #4096	; 0x1000
    f634:	a5843050 	strge	r3, [r4, #80]
    f638:	b1c430bc 	strlth	r3, [r4, #12]
    f63c:	e8bd8010 	ldmia	sp!, {r4, pc}
    f640:	00010c00 	andeq	r0, r1, r0, lsl #24

0000f644 <strcmp>:
    f644:	e1803001 	orr	r3, r0, r1
    f648:	e3130003 	tst	r3, #3	; 0x3
    f64c:	e1a02000 	mov	r2, r0
    f650:	1a00001d 	bne	f6cc <strcmp+0x88>
    f654:	e5902000 	ldr	r2, [r0]
    f658:	e5913000 	ldr	r3, [r1]
    f65c:	e1520003 	cmp	r2, r3
    f660:	1a000018 	bne	f6c8 <strcmp+0x84>
    f664:	e28234ff 	add	r3, r2, #-16777216	; 0xff000000
    f668:	e2433801 	sub	r3, r3, #65536	; 0x10000
    f66c:	e2433c01 	sub	r3, r3, #256	; 0x100
    f670:	e2433001 	sub	r3, r3, #1	; 0x1
    f674:	e3c3347f 	bic	r3, r3, #2130706432	; 0x7f000000
    f678:	e3c3387f 	bic	r3, r3, #8323072	; 0x7f0000
    f67c:	e3c33c7f 	bic	r3, r3, #32512	; 0x7f00
    f680:	e3c3307f 	bic	r3, r3, #127	; 0x7f
    f684:	e1d32002 	bics	r2, r3, r2
    f688:	0a000002 	beq	f698 <strcmp+0x54>
    f68c:	ea00001e 	b	f70c <strcmp+0xc8>
    f690:	e1d2c00c 	bics	ip, r2, ip
    f694:	1a00001c 	bne	f70c <strcmp+0xc8>
    f698:	e5b0c004 	ldr	ip, [r0, #4]!
    f69c:	e28c34ff 	add	r3, ip, #-16777216	; 0xff000000
    f6a0:	e2433801 	sub	r3, r3, #65536	; 0x10000
    f6a4:	e2433c01 	sub	r3, r3, #256	; 0x100
    f6a8:	e2433001 	sub	r3, r3, #1	; 0x1
    f6ac:	e3c3247f 	bic	r2, r3, #2130706432	; 0x7f000000
    f6b0:	e5b13004 	ldr	r3, [r1, #4]!
    f6b4:	e3c2287f 	bic	r2, r2, #8323072	; 0x7f0000
    f6b8:	e3c22c7f 	bic	r2, r2, #32512	; 0x7f00
    f6bc:	e15c0003 	cmp	ip, r3
    f6c0:	e3c2207f 	bic	r2, r2, #127	; 0x7f
    f6c4:	0afffff1 	beq	f690 <strcmp+0x4c>
    f6c8:	e1a02000 	mov	r2, r0
    f6cc:	e5d23000 	ldrb	r3, [r2]
    f6d0:	e3530000 	cmp	r3, #0	; 0x0
    f6d4:	1a000004 	bne	f6ec <strcmp+0xa8>
    f6d8:	ea000008 	b	f700 <strcmp+0xbc>
    f6dc:	e5f23001 	ldrb	r3, [r2, #1]!
    f6e0:	e3530000 	cmp	r3, #0	; 0x0
    f6e4:	e2811001 	add	r1, r1, #1	; 0x1
    f6e8:	0a000004 	beq	f700 <strcmp+0xbc>
    f6ec:	e5d10000 	ldrb	r0, [r1]
    f6f0:	e1500003 	cmp	r0, r3
    f6f4:	0afffff8 	beq	f6dc <strcmp+0x98>
    f6f8:	e0600003 	rsb	r0, r0, r3
    f6fc:	e12fff1e 	bx	lr
    f700:	e5d10000 	ldrb	r0, [r1]
    f704:	e0600003 	rsb	r0, r0, r3
    f708:	e12fff1e 	bx	lr
    f70c:	e3a00000 	mov	r0, #0	; 0x0
    f710:	e12fff1e 	bx	lr

0000f714 <strlen>:
    f714:	e3100003 	tst	r0, #3	; 0x3
    f718:	e1a01000 	mov	r1, r0
    f71c:	1a000018 	bne	f784 <strlen+0x70>
    f720:	e5902000 	ldr	r2, [r0]
    f724:	e28234ff 	add	r3, r2, #-16777216	; 0xff000000
    f728:	e2433801 	sub	r3, r3, #65536	; 0x10000
    f72c:	e2433c01 	sub	r3, r3, #256	; 0x100
    f730:	e2433001 	sub	r3, r3, #1	; 0x1
    f734:	e3c3347f 	bic	r3, r3, #2130706432	; 0x7f000000
    f738:	e3c3387f 	bic	r3, r3, #8323072	; 0x7f0000
    f73c:	e3c33c7f 	bic	r3, r3, #32512	; 0x7f00
    f740:	e3c3307f 	bic	r3, r3, #127	; 0x7f
    f744:	e1d32002 	bics	r2, r3, r2
    f748:	e1a02000 	mov	r2, r0
    f74c:	1a00000b 	bne	f780 <strlen+0x6c>
    f750:	e5b02004 	ldr	r2, [r0, #4]!
    f754:	e28234ff 	add	r3, r2, #-16777216	; 0xff000000
    f758:	e2433801 	sub	r3, r3, #65536	; 0x10000
    f75c:	e2433c01 	sub	r3, r3, #256	; 0x100
    f760:	e2433001 	sub	r3, r3, #1	; 0x1
    f764:	e3c3347f 	bic	r3, r3, #2130706432	; 0x7f000000
    f768:	e3c3387f 	bic	r3, r3, #8323072	; 0x7f0000
    f76c:	e3c33c7f 	bic	r3, r3, #32512	; 0x7f00
    f770:	e3c3307f 	bic	r3, r3, #127	; 0x7f
    f774:	e1d32002 	bics	r2, r3, r2
    f778:	0afffff4 	beq	f750 <strlen+0x3c>
    f77c:	e1a02000 	mov	r2, r0
    f780:	e1a00002 	mov	r0, r2
    f784:	e5d03000 	ldrb	r3, [r0]
    f788:	e3530000 	cmp	r3, #0	; 0x0
    f78c:	0a000002 	beq	f79c <strlen+0x88>
    f790:	e5f03001 	ldrb	r3, [r0, #1]!
    f794:	e3530000 	cmp	r3, #0	; 0x0
    f798:	1afffffc 	bne	f790 <strlen+0x7c>
    f79c:	e0610000 	rsb	r0, r1, r0
    f7a0:	e12fff1e 	bx	lr

0000f7a4 <_write_r>:
    f7a4:	e92d4030 	stmdb	sp!, {r4, r5, lr}
    f7a8:	e59f4030 	ldr	r4, [pc, #48]	; f7e0 <.text+0x77c0>
    f7ac:	e1a05000 	mov	r5, r0
    f7b0:	e1a00001 	mov	r0, r1
    f7b4:	e1a01002 	mov	r1, r2
    f7b8:	e1a02003 	mov	r2, r3
    f7bc:	e3a03000 	mov	r3, #0	; 0x0
    f7c0:	e5843000 	str	r3, [r4]
    f7c4:	ebffe3bc 	bl	86bc <_write>
    f7c8:	e3700001 	cmn	r0, #1	; 0x1
    f7cc:	18bd8030 	ldmneia	sp!, {r4, r5, pc}
    f7d0:	e5943000 	ldr	r3, [r4]
    f7d4:	e3530000 	cmp	r3, #0	; 0x0
    f7d8:	15853000 	strne	r3, [r5]
    f7dc:	e8bd8030 	ldmia	sp!, {r4, r5, pc}
    f7e0:	00011534 	andeq	r1, r1, r4, lsr r5

0000f7e4 <_calloc_r>:
    f7e4:	e92d4010 	stmdb	sp!, {r4, lr}
    f7e8:	e0010192 	mul	r1, r2, r1
    f7ec:	ebfff82a 	bl	d89c <_malloc_r>
    f7f0:	e2504000 	subs	r4, r0, #0	; 0x0
    f7f4:	0a00000f 	beq	f838 <_calloc_r+0x54>
    f7f8:	e5143004 	ldr	r3, [r4, #-4]
    f7fc:	e3c33003 	bic	r3, r3, #3	; 0x3
    f800:	e2433004 	sub	r3, r3, #4	; 0x4
    f804:	e3a0c000 	mov	ip, #0	; 0x0
    f808:	e3530024 	cmp	r3, #36	; 0x24
    f80c:	e1a02003 	mov	r2, r3
    f810:	e1a0100c 	mov	r1, ip
    f814:	8a000017 	bhi	f878 <_calloc_r+0x94>
    f818:	e3530013 	cmp	r3, #19	; 0x13
    f81c:	e1a01004 	mov	r1, r4
    f820:	e1a02004 	mov	r2, r4
    f824:	8a000005 	bhi	f840 <_calloc_r+0x5c>
    f828:	e1a03002 	mov	r3, r2
    f82c:	e483c004 	str	ip, [r3], #4
    f830:	e582c004 	str	ip, [r2, #4]
    f834:	e583c004 	str	ip, [r3, #4]
    f838:	e1a00004 	mov	r0, r4
    f83c:	e8bd8010 	ldmia	sp!, {r4, pc}
    f840:	e481c004 	str	ip, [r1], #4
    f844:	e353001b 	cmp	r3, #27	; 0x1b
    f848:	e2812004 	add	r2, r1, #4	; 0x4
    f84c:	e584c004 	str	ip, [r4, #4]
    f850:	e282e004 	add	lr, r2, #4	; 0x4
    f854:	9afffff3 	bls	f828 <_calloc_r+0x44>
    f858:	e3530024 	cmp	r3, #36	; 0x24
    f85c:	e581c004 	str	ip, [r1, #4]
    f860:	e582c004 	str	ip, [r2, #4]
    f864:	e28e2004 	add	r2, lr, #4	; 0x4
    f868:	058ec004 	streq	ip, [lr, #4]
    f86c:	0582c004 	streq	ip, [r2, #4]
    f870:	02822008 	addeq	r2, r2, #8	; 0x8
    f874:	eaffffeb 	b	f828 <_calloc_r+0x44>
    f878:	ebffe2b3 	bl	834c <memset>
    f87c:	e1a00004 	mov	r0, r4
    f880:	e8bd8010 	ldmia	sp!, {r4, pc}

0000f884 <_close_r>:
    f884:	e92d4030 	stmdb	sp!, {r4, r5, lr}
    f888:	e59f4028 	ldr	r4, [pc, #40]	; f8b8 <.text+0x7898>
    f88c:	e3a03000 	mov	r3, #0	; 0x0
    f890:	e1a05000 	mov	r5, r0
    f894:	e1a00001 	mov	r0, r1
    f898:	e5843000 	str	r3, [r4]
    f89c:	ebffe373 	bl	8670 <_close>
    f8a0:	e3700001 	cmn	r0, #1	; 0x1
    f8a4:	18bd8030 	ldmneia	sp!, {r4, r5, pc}
    f8a8:	e5943000 	ldr	r3, [r4]
    f8ac:	e3530000 	cmp	r3, #0	; 0x0
    f8b0:	15853000 	strne	r3, [r5]
    f8b4:	e8bd8030 	ldmia	sp!, {r4, r5, pc}
    f8b8:	00011534 	andeq	r1, r1, r4, lsr r5

0000f8bc <_fclose_r>:
    f8bc:	e92d4070 	stmdb	sp!, {r4, r5, r6, lr}
    f8c0:	e2515000 	subs	r5, r1, #0	; 0x0
    f8c4:	e1a06000 	mov	r6, r0
    f8c8:	01a04005 	moveq	r4, r5
    f8cc:	0a00002b 	beq	f980 <_fclose_r+0xc4>
    f8d0:	ebfff4bb 	bl	cbc4 <__sfp_lock_acquire>
    f8d4:	e3560000 	cmp	r6, #0	; 0x0
    f8d8:	0a000002 	beq	f8e8 <_fclose_r+0x2c>
    f8dc:	e5963038 	ldr	r3, [r6, #56]
    f8e0:	e3530000 	cmp	r3, #0	; 0x0
    f8e4:	0a000027 	beq	f988 <_fclose_r+0xcc>
    f8e8:	e1d540bc 	ldrh	r4, [r5, #12]
    f8ec:	e3540000 	cmp	r4, #0	; 0x0
    f8f0:	0a000021 	beq	f97c <_fclose_r+0xc0>
    f8f4:	e2140008 	ands	r0, r4, #8	; 0x8
    f8f8:	1a000025 	bne	f994 <_fclose_r+0xd8>
    f8fc:	e595302c 	ldr	r3, [r5, #44]
    f900:	e3530000 	cmp	r3, #0	; 0x0
    f904:	e1a04000 	mov	r4, r0
    f908:	0a000004 	beq	f920 <_fclose_r+0x64>
    f90c:	e595001c 	ldr	r0, [r5, #28]
    f910:	e1a0e00f 	mov	lr, pc
    f914:	e12fff13 	bx	r3
    f918:	e3500000 	cmp	r0, #0	; 0x0
    f91c:	b3e04000 	mvnlt	r4, #0	; 0x0
    f920:	e1d530bc 	ldrh	r3, [r5, #12]
    f924:	e3130080 	tst	r3, #128	; 0x80
    f928:	1a000020 	bne	f9b0 <_fclose_r+0xf4>
    f92c:	e5951030 	ldr	r1, [r5, #48]
    f930:	e3510000 	cmp	r1, #0	; 0x0
    f934:	0a000006 	beq	f954 <_fclose_r+0x98>
    f938:	e2853040 	add	r3, r5, #64	; 0x40
    f93c:	e1510003 	cmp	r1, r3
    f940:	159f3084 	ldrne	r3, [pc, #132]	; f9cc <.text+0x79ac>
    f944:	15930000 	ldrne	r0, [r3]
    f948:	1bfff560 	blne	ced0 <_free_r>
    f94c:	e3a03000 	mov	r3, #0	; 0x0
    f950:	e5853030 	str	r3, [r5, #48]
    f954:	e5951044 	ldr	r1, [r5, #68]
    f958:	e3510000 	cmp	r1, #0	; 0x0
    f95c:	0a000004 	beq	f974 <_fclose_r+0xb8>
    f960:	e59f3064 	ldr	r3, [pc, #100]	; f9cc <.text+0x79ac>
    f964:	e5930000 	ldr	r0, [r3]
    f968:	ebfff558 	bl	ced0 <_free_r>
    f96c:	e3a03000 	mov	r3, #0	; 0x0
    f970:	e5853044 	str	r3, [r5, #68]
    f974:	e3a03000 	mov	r3, #0	; 0x0
    f978:	e1c530bc 	strh	r3, [r5, #12]
    f97c:	ebfff491 	bl	cbc8 <__sfp_lock_release>
    f980:	e1a00004 	mov	r0, r4
    f984:	e8bd8070 	ldmia	sp!, {r4, r5, r6, pc}
    f988:	e1a00006 	mov	r0, r6
    f98c:	ebfff490 	bl	cbd4 <__sinit>
    f990:	eaffffd4 	b	f8e8 <_fclose_r+0x2c>
    f994:	e1a00005 	mov	r0, r5
    f998:	ebfff43a 	bl	ca88 <fflush>
    f99c:	e595302c 	ldr	r3, [r5, #44]
    f9a0:	e3530000 	cmp	r3, #0	; 0x0
    f9a4:	e1a04000 	mov	r4, r0
    f9a8:	1affffd7 	bne	f90c <_fclose_r+0x50>
    f9ac:	eaffffdb 	b	f920 <_fclose_r+0x64>
    f9b0:	e5951010 	ldr	r1, [r5, #16]
    f9b4:	e1a00006 	mov	r0, r6
    f9b8:	ebfff544 	bl	ced0 <_free_r>
    f9bc:	e5951030 	ldr	r1, [r5, #48]
    f9c0:	e3510000 	cmp	r1, #0	; 0x0
    f9c4:	1affffdb 	bne	f938 <_fclose_r+0x7c>
    f9c8:	eaffffe1 	b	f954 <_fclose_r+0x98>
    f9cc:	00010c00 	andeq	r0, r1, r0, lsl #24

0000f9d0 <fclose>:
    f9d0:	e59f3008 	ldr	r3, [pc, #8]	; f9e0 <.text+0x79c0>
    f9d4:	e1a01000 	mov	r1, r0
    f9d8:	e5930000 	ldr	r0, [r3]
    f9dc:	eaffffb6 	b	f8bc <_fclose_r>
    f9e0:	00010c00 	andeq	r0, r1, r0, lsl #24

0000f9e4 <_fstat_r>:
    f9e4:	e92d4030 	stmdb	sp!, {r4, r5, lr}
    f9e8:	e59f402c 	ldr	r4, [pc, #44]	; fa1c <.text+0x79fc>
    f9ec:	e3a03000 	mov	r3, #0	; 0x0
    f9f0:	e1a05000 	mov	r5, r0
    f9f4:	e1a00001 	mov	r0, r1
    f9f8:	e1a01002 	mov	r1, r2
    f9fc:	e5843000 	str	r3, [r4]
    fa00:	ebffe2dc 	bl	8578 <_fstat>
    fa04:	e3700001 	cmn	r0, #1	; 0x1
    fa08:	18bd8030 	ldmneia	sp!, {r4, r5, pc}
    fa0c:	e5943000 	ldr	r3, [r4]
    fa10:	e3530000 	cmp	r3, #0	; 0x0
    fa14:	15853000 	strne	r3, [r5]
    fa18:	e8bd8030 	ldmia	sp!, {r4, r5, pc}
    fa1c:	00011534 	andeq	r1, r1, r4, lsr r5

0000fa20 <_lseek_r>:
    fa20:	e92d4030 	stmdb	sp!, {r4, r5, lr}
    fa24:	e59f4030 	ldr	r4, [pc, #48]	; fa5c <.text+0x7a3c>
    fa28:	e1a05000 	mov	r5, r0
    fa2c:	e1a00001 	mov	r0, r1
    fa30:	e1a01002 	mov	r1, r2
    fa34:	e1a02003 	mov	r2, r3
    fa38:	e3a03000 	mov	r3, #0	; 0x0
    fa3c:	e5843000 	str	r3, [r4]
    fa40:	ebffe371 	bl	880c <_lseek>
    fa44:	e3700001 	cmn	r0, #1	; 0x1
    fa48:	18bd8030 	ldmneia	sp!, {r4, r5, pc}
    fa4c:	e5943000 	ldr	r3, [r4]
    fa50:	e3530000 	cmp	r3, #0	; 0x0
    fa54:	15853000 	strne	r3, [r5]
    fa58:	e8bd8030 	ldmia	sp!, {r4, r5, pc}
    fa5c:	00011534 	andeq	r1, r1, r4, lsr r5

0000fa60 <_read_r>:
    fa60:	e92d4030 	stmdb	sp!, {r4, r5, lr}
    fa64:	e59f4030 	ldr	r4, [pc, #48]	; fa9c <.text+0x7a7c>
    fa68:	e1a05000 	mov	r5, r0
    fa6c:	e1a00001 	mov	r0, r1
    fa70:	e1a01002 	mov	r1, r2
    fa74:	e1a02003 	mov	r2, r3
    fa78:	e3a03000 	mov	r3, #0	; 0x0
    fa7c:	e5843000 	str	r3, [r4]
    fa80:	ebffe374 	bl	8858 <_read>
    fa84:	e3700001 	cmn	r0, #1	; 0x1
    fa88:	18bd8030 	ldmneia	sp!, {r4, r5, pc}
    fa8c:	e5943000 	ldr	r3, [r4]
    fa90:	e3530000 	cmp	r3, #0	; 0x0
    fa94:	15853000 	strne	r3, [r5]
    fa98:	e8bd8030 	ldmia	sp!, {r4, r5, pc}
    fa9c:	00011534 	andeq	r1, r1, r4, lsr r5

0000faa0 <_wrapup_reent>:
    faa0:	e92d41f0 	stmdb	sp!, {r4, r5, r6, r7, r8, lr}
    faa4:	e2508000 	subs	r8, r0, #0	; 0x0
    faa8:	059f3064 	ldreq	r3, [pc, #100]	; fb14 <.text+0x7af4>
    faac:	05938000 	ldreq	r8, [r3]
    fab0:	e5987148 	ldr	r7, [r8, #328]
    fab4:	e3570000 	cmp	r7, #0	; 0x0
    fab8:	0a00000e 	beq	faf8 <_wrapup_reent+0x58>
    fabc:	e5976004 	ldr	r6, [r7, #4]
    fac0:	e3560001 	cmp	r6, #1	; 0x1
    fac4:	4a000008 	bmi	faec <_wrapup_reent+0x4c>
    fac8:	e1a03106 	mov	r3, r6, lsl #2
    facc:	e2833008 	add	r3, r3, #8	; 0x8
    fad0:	e0875003 	add	r5, r7, r3
    fad4:	e3a04000 	mov	r4, #0	; 0x0
    fad8:	e2844001 	add	r4, r4, #1	; 0x1
    fadc:	e1a0e00f 	mov	lr, pc
    fae0:	e535f004 	ldr	pc, [r5, #-4]!
    fae4:	e1540006 	cmp	r4, r6
    fae8:	1afffffa 	bne	fad8 <_wrapup_reent+0x38>
    faec:	e5977000 	ldr	r7, [r7]
    faf0:	e3570000 	cmp	r7, #0	; 0x0
    faf4:	1afffff0 	bne	fabc <_wrapup_reent+0x1c>
    faf8:	e598303c 	ldr	r3, [r8, #60]
    fafc:	e3530000 	cmp	r3, #0	; 0x0
    fb00:	08bd81f0 	ldmeqia	sp!, {r4, r5, r6, r7, r8, pc}
    fb04:	e1a00008 	mov	r0, r8
    fb08:	e1a0e00f 	mov	lr, pc
    fb0c:	e12fff13 	bx	r3
    fb10:	e8bd81f0 	ldmia	sp!, {r4, r5, r6, r7, r8, pc}
    fb14:	00010c00 	andeq	r0, r1, r0, lsl #24

0000fb18 <cleanup_glue>:
    fb18:	e92d4030 	stmdb	sp!, {r4, r5, lr}
    fb1c:	e1a05001 	mov	r5, r1
    fb20:	e5911000 	ldr	r1, [r1]
    fb24:	e3510000 	cmp	r1, #0	; 0x0
    fb28:	e1a04000 	mov	r4, r0
    fb2c:	1bfffff9 	blne	fb18 <cleanup_glue>
    fb30:	e1a00004 	mov	r0, r4
    fb34:	e1a01005 	mov	r1, r5
    fb38:	e8bd4030 	ldmia	sp!, {r4, r5, lr}
    fb3c:	eafff4e3 	b	ced0 <_free_r>

0000fb40 <_reclaim_reent>:
    fb40:	e59f30cc 	ldr	r3, [pc, #204]	; fc14 <.text+0x7bf4>
    fb44:	e5932000 	ldr	r2, [r3]
    fb48:	e1520000 	cmp	r2, r0
    fb4c:	e92d4070 	stmdb	sp!, {r4, r5, r6, lr}
    fb50:	e1a05000 	mov	r5, r0
    fb54:	08bd8070 	ldmeqia	sp!, {r4, r5, r6, pc}
    fb58:	e590304c 	ldr	r3, [r0, #76]
    fb5c:	e3530000 	cmp	r3, #0	; 0x0
    fb60:	0a00000f 	beq	fba4 <_reclaim_reent+0x64>
    fb64:	e3a06000 	mov	r6, #0	; 0x0
    fb68:	e7931006 	ldr	r1, [r3, r6]
    fb6c:	e3510000 	cmp	r1, #0	; 0x0
    fb70:	0a000005 	beq	fb8c <_reclaim_reent+0x4c>
    fb74:	e5914000 	ldr	r4, [r1]
    fb78:	e1a00005 	mov	r0, r5
    fb7c:	ebfff4d3 	bl	ced0 <_free_r>
    fb80:	e2541000 	subs	r1, r4, #0	; 0x0
    fb84:	1afffffa 	bne	fb74 <_reclaim_reent+0x34>
    fb88:	e595304c 	ldr	r3, [r5, #76]
    fb8c:	e2866004 	add	r6, r6, #4	; 0x4
    fb90:	e356003c 	cmp	r6, #60	; 0x3c
    fb94:	1afffff3 	bne	fb68 <_reclaim_reent+0x28>
    fb98:	e1a01003 	mov	r1, r3
    fb9c:	e1a00005 	mov	r0, r5
    fba0:	ebfff4ca 	bl	ced0 <_free_r>
    fba4:	e5951148 	ldr	r1, [r5, #328]
    fba8:	e3510000 	cmp	r1, #0	; 0x0
    fbac:	0a000008 	beq	fbd4 <_reclaim_reent+0x94>
    fbb0:	e2856f53 	add	r6, r5, #332	; 0x14c
    fbb4:	e1510006 	cmp	r1, r6
    fbb8:	0a000005 	beq	fbd4 <_reclaim_reent+0x94>
    fbbc:	e5914000 	ldr	r4, [r1]
    fbc0:	e1a00005 	mov	r0, r5
    fbc4:	ebfff4c1 	bl	ced0 <_free_r>
    fbc8:	e1560004 	cmp	r6, r4
    fbcc:	e1a01004 	mov	r1, r4
    fbd0:	1afffff9 	bne	fbbc <_reclaim_reent+0x7c>
    fbd4:	e5951054 	ldr	r1, [r5, #84]
    fbd8:	e3510000 	cmp	r1, #0	; 0x0
    fbdc:	11a00005 	movne	r0, r5
    fbe0:	1bfff4ba 	blne	ced0 <_free_r>
    fbe4:	e5953038 	ldr	r3, [r5, #56]
    fbe8:	e3530000 	cmp	r3, #0	; 0x0
    fbec:	08bd8070 	ldmeqia	sp!, {r4, r5, r6, pc}
    fbf0:	e1a00005 	mov	r0, r5
    fbf4:	e1a0e00f 	mov	lr, pc
    fbf8:	e595f03c 	ldr	pc, [r5, #60]
    fbfc:	e59512e0 	ldr	r1, [r5, #736]
    fc00:	e3510000 	cmp	r1, #0	; 0x0
    fc04:	08bd8070 	ldmeqia	sp!, {r4, r5, r6, pc}
    fc08:	e1a00005 	mov	r0, r5
    fc0c:	e8bd4070 	ldmia	sp!, {r4, r5, r6, lr}
    fc10:	eaffffc0 	b	fb18 <cleanup_glue>
    fc14:	00010c00 	andeq	r0, r1, r0, lsl #24

0000fc18 <__aeabi_uidiv>:
    fc18:	e2512001 	subs	r2, r1, #1	; 0x1
    fc1c:	012fff1e 	bxeq	lr
    fc20:	3a000036 	bcc	fd00 <__aeabi_uidiv+0xe8>
    fc24:	e1500001 	cmp	r0, r1
    fc28:	9a000022 	bls	fcb8 <__aeabi_uidiv+0xa0>
    fc2c:	e1110002 	tst	r1, r2
    fc30:	0a000023 	beq	fcc4 <__aeabi_uidiv+0xac>
    fc34:	e311020e 	tst	r1, #-536870912	; 0xe0000000
    fc38:	01a01181 	moveq	r1, r1, lsl #3
    fc3c:	03a03008 	moveq	r3, #8	; 0x8
    fc40:	13a03001 	movne	r3, #1	; 0x1
    fc44:	e3510201 	cmp	r1, #268435456	; 0x10000000
    fc48:	31510000 	cmpcc	r1, r0
    fc4c:	31a01201 	movcc	r1, r1, lsl #4
    fc50:	31a03203 	movcc	r3, r3, lsl #4
    fc54:	3afffffa 	bcc	fc44 <__aeabi_uidiv+0x2c>
    fc58:	e3510102 	cmp	r1, #-2147483648	; 0x80000000
    fc5c:	31510000 	cmpcc	r1, r0
    fc60:	31a01081 	movcc	r1, r1, lsl #1
    fc64:	31a03083 	movcc	r3, r3, lsl #1
    fc68:	3afffffa 	bcc	fc58 <__aeabi_uidiv+0x40>
    fc6c:	e3a02000 	mov	r2, #0	; 0x0
    fc70:	e1500001 	cmp	r0, r1
    fc74:	20400001 	subcs	r0, r0, r1
    fc78:	21822003 	orrcs	r2, r2, r3
    fc7c:	e15000a1 	cmp	r0, r1, lsr #1
    fc80:	204000a1 	subcs	r0, r0, r1, lsr #1
    fc84:	218220a3 	orrcs	r2, r2, r3, lsr #1
    fc88:	e1500121 	cmp	r0, r1, lsr #2
    fc8c:	20400121 	subcs	r0, r0, r1, lsr #2
    fc90:	21822123 	orrcs	r2, r2, r3, lsr #2
    fc94:	e15001a1 	cmp	r0, r1, lsr #3
    fc98:	204001a1 	subcs	r0, r0, r1, lsr #3
    fc9c:	218221a3 	orrcs	r2, r2, r3, lsr #3
    fca0:	e3500000 	cmp	r0, #0	; 0x0
    fca4:	11b03223 	movnes	r3, r3, lsr #4
    fca8:	11a01221 	movne	r1, r1, lsr #4
    fcac:	1affffef 	bne	fc70 <__aeabi_uidiv+0x58>
    fcb0:	e1a00002 	mov	r0, r2
    fcb4:	e12fff1e 	bx	lr
    fcb8:	03a00001 	moveq	r0, #1	; 0x1
    fcbc:	13a00000 	movne	r0, #0	; 0x0
    fcc0:	e12fff1e 	bx	lr
    fcc4:	e3510801 	cmp	r1, #65536	; 0x10000
    fcc8:	21a01821 	movcs	r1, r1, lsr #16
    fccc:	23a02010 	movcs	r2, #16	; 0x10
    fcd0:	33a02000 	movcc	r2, #0	; 0x0
    fcd4:	e3510c01 	cmp	r1, #256	; 0x100
    fcd8:	21a01421 	movcs	r1, r1, lsr #8
    fcdc:	22822008 	addcs	r2, r2, #8	; 0x8
    fce0:	e3510010 	cmp	r1, #16	; 0x10
    fce4:	21a01221 	movcs	r1, r1, lsr #4
    fce8:	22822004 	addcs	r2, r2, #4	; 0x4
    fcec:	e3510004 	cmp	r1, #4	; 0x4
    fcf0:	82822003 	addhi	r2, r2, #3	; 0x3
    fcf4:	908220a1 	addls	r2, r2, r1, lsr #1
    fcf8:	e1a00230 	mov	r0, r0, lsr r2
    fcfc:	e12fff1e 	bx	lr
    fd00:	e52de008 	str	lr, [sp, #-8]!
    fd04:	eb000007 	bl	fd28 <__aeabi_idiv0>
    fd08:	e3a00000 	mov	r0, #0	; 0x0
    fd0c:	e49df008 	ldr	pc, [sp], #8

0000fd10 <__aeabi_uidivmod>:
    fd10:	e92d4003 	stmdb	sp!, {r0, r1, lr}
    fd14:	ebffffbf 	bl	fc18 <__aeabi_uidiv>
    fd18:	e8bd4006 	ldmia	sp!, {r1, r2, lr}
    fd1c:	e0030092 	mul	r3, r2, r0
    fd20:	e0411003 	sub	r1, r1, r3
    fd24:	e12fff1e 	bx	lr

0000fd28 <__aeabi_idiv0>:
    fd28:	e12fff1e 	bx	lr

0000fd2c <__aeabi_drsub>:
    fd2c:	e2200102 	eor	r0, r0, #-2147483648	; 0x80000000
    fd30:	ea000000 	b	fd38 <__adddf3>

0000fd34 <__aeabi_dsub>:
    fd34:	e2222102 	eor	r2, r2, #-2147483648	; 0x80000000

0000fd38 <__adddf3>:
    fd38:	e92d4030 	stmdb	sp!, {r4, r5, lr}
    fd3c:	e1a04080 	mov	r4, r0, lsl #1
    fd40:	e1a05082 	mov	r5, r2, lsl #1
    fd44:	e1340005 	teq	r4, r5
    fd48:	01310003 	teqeq	r1, r3
    fd4c:	1194c001 	orrnes	ip, r4, r1
    fd50:	1195c003 	orrnes	ip, r5, r3
    fd54:	11f0cac4 	mvnnes	ip, r4, asr #21
    fd58:	11f0cac5 	mvnnes	ip, r5, asr #21
    fd5c:	0a000086 	beq	ff7c <__adddf3+0x244>
    fd60:	e1a04aa4 	mov	r4, r4, lsr #21
    fd64:	e0745aa5 	rsbs	r5, r4, r5, lsr #21
    fd68:	b2655000 	rsblt	r5, r5, #0	; 0x0
    fd6c:	da000006 	ble	fd8c <__adddf3+0x54>
    fd70:	e0844005 	add	r4, r4, r5
    fd74:	e0213003 	eor	r3, r1, r3
    fd78:	e0202002 	eor	r2, r0, r2
    fd7c:	e0231001 	eor	r1, r3, r1
    fd80:	e0220000 	eor	r0, r2, r0
    fd84:	e0213003 	eor	r3, r1, r3
    fd88:	e0202002 	eor	r2, r0, r2
    fd8c:	e3550036 	cmp	r5, #54	; 0x36
    fd90:	88bd8030 	ldmhiia	sp!, {r4, r5, pc}
    fd94:	e3100102 	tst	r0, #-2147483648	; 0x80000000
    fd98:	e1a00600 	mov	r0, r0, lsl #12
    fd9c:	e3a0c601 	mov	ip, #1048576	; 0x100000
    fda0:	e18c0620 	orr	r0, ip, r0, lsr #12
    fda4:	0a000001 	beq	fdb0 <__adddf3+0x78>
    fda8:	e2711000 	rsbs	r1, r1, #0	; 0x0
    fdac:	e2e00000 	rsc	r0, r0, #0	; 0x0
    fdb0:	e3120102 	tst	r2, #-2147483648	; 0x80000000
    fdb4:	e1a02602 	mov	r2, r2, lsl #12
    fdb8:	e18c2622 	orr	r2, ip, r2, lsr #12
    fdbc:	0a000001 	beq	fdc8 <__adddf3+0x90>
    fdc0:	e2733000 	rsbs	r3, r3, #0	; 0x0
    fdc4:	e2e22000 	rsc	r2, r2, #0	; 0x0
    fdc8:	e1340005 	teq	r4, r5
    fdcc:	0a000064 	beq	ff64 <__adddf3+0x22c>
    fdd0:	e2444001 	sub	r4, r4, #1	; 0x1
    fdd4:	e275e020 	rsbs	lr, r5, #32	; 0x20
    fdd8:	ba000005 	blt	fdf4 <__adddf3+0xbc>
    fddc:	e1a0ce13 	mov	ip, r3, lsl lr
    fde0:	e0911533 	adds	r1, r1, r3, lsr r5
    fde4:	e2a00000 	adc	r0, r0, #0	; 0x0
    fde8:	e0911e12 	adds	r1, r1, r2, lsl lr
    fdec:	e0b00552 	adcs	r0, r0, r2, asr r5
    fdf0:	ea000006 	b	fe10 <__adddf3+0xd8>
    fdf4:	e2455020 	sub	r5, r5, #32	; 0x20
    fdf8:	e28ee020 	add	lr, lr, #32	; 0x20
    fdfc:	e3530001 	cmp	r3, #1	; 0x1
    fe00:	e1a0ce12 	mov	ip, r2, lsl lr
    fe04:	238cc002 	orrcs	ip, ip, #2	; 0x2
    fe08:	e0911552 	adds	r1, r1, r2, asr r5
    fe0c:	e0b00fc2 	adcs	r0, r0, r2, asr #31
    fe10:	e2005102 	and	r5, r0, #-2147483648	; 0x80000000
    fe14:	5a000002 	bpl	fe24 <__adddf3+0xec>
    fe18:	e27cc000 	rsbs	ip, ip, #0	; 0x0
    fe1c:	e2f11000 	rscs	r1, r1, #0	; 0x0
    fe20:	e2e00000 	rsc	r0, r0, #0	; 0x0
    fe24:	e3500601 	cmp	r0, #1048576	; 0x100000
    fe28:	3a00000e 	bcc	fe68 <__adddf3+0x130>
    fe2c:	e3500602 	cmp	r0, #2097152	; 0x200000
    fe30:	3a000006 	bcc	fe50 <__adddf3+0x118>
    fe34:	e1b000a0 	movs	r0, r0, lsr #1
    fe38:	e1b01061 	movs	r1, r1, rrx
    fe3c:	e1a0c06c 	mov	ip, ip, rrx
    fe40:	e2844001 	add	r4, r4, #1	; 0x1
    fe44:	e1a02a84 	mov	r2, r4, lsl #21
    fe48:	e3720501 	cmn	r2, #4194304	; 0x400000
    fe4c:	2a000062 	bcs	ffdc <__adddf3+0x2a4>
    fe50:	e35c0102 	cmp	ip, #-2147483648	; 0x80000000
    fe54:	01b0c0a1 	moveqs	ip, r1, lsr #1
    fe58:	e2b11000 	adcs	r1, r1, #0	; 0x0
    fe5c:	e0a00a04 	adc	r0, r0, r4, lsl #20
    fe60:	e1800005 	orr	r0, r0, r5
    fe64:	e8bd8030 	ldmia	sp!, {r4, r5, pc}
    fe68:	e1b0c08c 	movs	ip, ip, lsl #1
    fe6c:	e0b11001 	adcs	r1, r1, r1
    fe70:	e0a00000 	adc	r0, r0, r0
    fe74:	e3100601 	tst	r0, #1048576	; 0x100000
    fe78:	e2444001 	sub	r4, r4, #1	; 0x1
    fe7c:	1afffff3 	bne	fe50 <__adddf3+0x118>
    fe80:	e3300000 	teq	r0, #0	; 0x0
    fe84:	13a03014 	movne	r3, #20	; 0x14
    fe88:	03a03034 	moveq	r3, #52	; 0x34
    fe8c:	01a00001 	moveq	r0, r1
    fe90:	03a01000 	moveq	r1, #0	; 0x0
    fe94:	e1a02000 	mov	r2, r0
    fe98:	e3520801 	cmp	r2, #65536	; 0x10000
    fe9c:	21a02822 	movcs	r2, r2, lsr #16
    fea0:	22433010 	subcs	r3, r3, #16	; 0x10
    fea4:	e3520c01 	cmp	r2, #256	; 0x100
    fea8:	21a02422 	movcs	r2, r2, lsr #8
    feac:	22433008 	subcs	r3, r3, #8	; 0x8
    feb0:	e3520010 	cmp	r2, #16	; 0x10
    feb4:	21a02222 	movcs	r2, r2, lsr #4
    feb8:	22433004 	subcs	r3, r3, #4	; 0x4
    febc:	e3520004 	cmp	r2, #4	; 0x4
    fec0:	22433002 	subcs	r3, r3, #2	; 0x2
    fec4:	304330a2 	subcc	r3, r3, r2, lsr #1
    fec8:	e04331a2 	sub	r3, r3, r2, lsr #3
    fecc:	e2532020 	subs	r2, r3, #32	; 0x20
    fed0:	aa000007 	bge	fef4 <__adddf3+0x1bc>
    fed4:	e292200c 	adds	r2, r2, #12	; 0xc
    fed8:	da000004 	ble	fef0 <__adddf3+0x1b8>
    fedc:	e282c014 	add	ip, r2, #20	; 0x14
    fee0:	e262200c 	rsb	r2, r2, #12	; 0xc
    fee4:	e1a01c10 	mov	r1, r0, lsl ip
    fee8:	e1a00230 	mov	r0, r0, lsr r2
    feec:	ea000004 	b	ff04 <__adddf3+0x1cc>
    fef0:	e2822014 	add	r2, r2, #20	; 0x14
    fef4:	d262c020 	rsble	ip, r2, #32	; 0x20
    fef8:	e1a00210 	mov	r0, r0, lsl r2
    fefc:	d1800c31 	orrle	r0, r0, r1, lsr ip
    ff00:	d1a01211 	movle	r1, r1, lsl r2
    ff04:	e0544003 	subs	r4, r4, r3
    ff08:	a0800a04 	addge	r0, r0, r4, lsl #20
    ff0c:	a1800005 	orrge	r0, r0, r5
    ff10:	a8bd8030 	ldmgeia	sp!, {r4, r5, pc}
    ff14:	e1e04004 	mvn	r4, r4
    ff18:	e254401f 	subs	r4, r4, #31	; 0x1f
    ff1c:	aa00000d 	bge	ff58 <__adddf3+0x220>
    ff20:	e294400c 	adds	r4, r4, #12	; 0xc
    ff24:	ca000005 	bgt	ff40 <__adddf3+0x208>
    ff28:	e2844014 	add	r4, r4, #20	; 0x14
    ff2c:	e2642020 	rsb	r2, r4, #32	; 0x20
    ff30:	e1a01431 	mov	r1, r1, lsr r4
    ff34:	e1811210 	orr	r1, r1, r0, lsl r2
    ff38:	e1850430 	orr	r0, r5, r0, lsr r4
    ff3c:	e8bd8030 	ldmia	sp!, {r4, r5, pc}
    ff40:	e264400c 	rsb	r4, r4, #12	; 0xc
    ff44:	e2642020 	rsb	r2, r4, #32	; 0x20
    ff48:	e1a01231 	mov	r1, r1, lsr r2
    ff4c:	e1811410 	orr	r1, r1, r0, lsl r4
    ff50:	e1a00005 	mov	r0, r5
    ff54:	e8bd8030 	ldmia	sp!, {r4, r5, pc}
    ff58:	e1a01430 	mov	r1, r0, lsr r4
    ff5c:	e1a00005 	mov	r0, r5
    ff60:	e8bd8030 	ldmia	sp!, {r4, r5, pc}
    ff64:	e3340000 	teq	r4, #0	; 0x0
    ff68:	e2222601 	eor	r2, r2, #1048576	; 0x100000
    ff6c:	02200601 	eoreq	r0, r0, #1048576	; 0x100000
    ff70:	02844001 	addeq	r4, r4, #1	; 0x1
    ff74:	12455001 	subne	r5, r5, #1	; 0x1
    ff78:	eaffff94 	b	fdd0 <__adddf3+0x98>
    ff7c:	e1f0cac4 	mvns	ip, r4, asr #21
    ff80:	11f0cac5 	mvnnes	ip, r5, asr #21
    ff84:	0a000018 	beq	ffec <__adddf3+0x2b4>
    ff88:	e1340005 	teq	r4, r5
    ff8c:	01310003 	teqeq	r1, r3
    ff90:	0a000003 	beq	ffa4 <__adddf3+0x26c>
    ff94:	e3340000 	teq	r4, #0	; 0x0
    ff98:	01a00002 	moveq	r0, r2
    ff9c:	01a01003 	moveq	r1, r3
    ffa0:	e8bd8030 	ldmia	sp!, {r4, r5, pc}
    ffa4:	e1300002 	teq	r0, r2
    ffa8:	13a00000 	movne	r0, #0	; 0x0
    ffac:	13a01000 	movne	r1, #0	; 0x0
    ffb0:	18bd8030 	ldmneia	sp!, {r4, r5, pc}
    ffb4:	e1b0caa4 	movs	ip, r4, lsr #21
    ffb8:	1a000003 	bne	ffcc <__adddf3+0x294>
    ffbc:	e1b01081 	movs	r1, r1, lsl #1
    ffc0:	e0b00000 	adcs	r0, r0, r0
    ffc4:	23800102 	orrcs	r0, r0, #-2147483648	; 0x80000000
    ffc8:	e8bd8030 	ldmia	sp!, {r4, r5, pc}
    ffcc:	e2944501 	adds	r4, r4, #4194304	; 0x400000
    ffd0:	32800601 	addcc	r0, r0, #1048576	; 0x100000
    ffd4:	38bd8030 	ldmccia	sp!, {r4, r5, pc}
    ffd8:	e2005102 	and	r5, r0, #-2147483648	; 0x80000000
    ffdc:	e385047f 	orr	r0, r5, #2130706432	; 0x7f000000
    ffe0:	e380060f 	orr	r0, r0, #15728640	; 0xf00000
    ffe4:	e3a01000 	mov	r1, #0	; 0x0
    ffe8:	e8bd8030 	ldmia	sp!, {r4, r5, pc}
    ffec:	e1f0cac4 	mvns	ip, r4, asr #21
    fff0:	11a00002 	movne	r0, r2
    fff4:	11a01003 	movne	r1, r3
    fff8:	01f0cac5 	mvneqs	ip, r5, asr #21
    fffc:	11a02000 	movne	r2, r0
   10000:	11a03001 	movne	r3, r1
   10004:	e1914600 	orrs	r4, r1, r0, lsl #12
   10008:	01935602 	orreqs	r5, r3, r2, lsl #12
   1000c:	01300002 	teqeq	r0, r2
   10010:	13800702 	orrne	r0, r0, #524288	; 0x80000
   10014:	e8bd8030 	ldmia	sp!, {r4, r5, pc}

00010018 <__aeabi_ui2d>:
   10018:	e3300000 	teq	r0, #0	; 0x0
   1001c:	03a01000 	moveq	r1, #0	; 0x0
   10020:	012fff1e 	bxeq	lr
   10024:	e92d4030 	stmdb	sp!, {r4, r5, lr}
   10028:	e3a04b01 	mov	r4, #1024	; 0x400
   1002c:	e2844032 	add	r4, r4, #50	; 0x32
   10030:	e3a05000 	mov	r5, #0	; 0x0
   10034:	e1a01000 	mov	r1, r0
   10038:	e3a00000 	mov	r0, #0	; 0x0
   1003c:	eaffff8f 	b	fe80 <__adddf3+0x148>

00010040 <__aeabi_i2d>:
   10040:	e3300000 	teq	r0, #0	; 0x0
   10044:	03a01000 	moveq	r1, #0	; 0x0
   10048:	012fff1e 	bxeq	lr
   1004c:	e92d4030 	stmdb	sp!, {r4, r5, lr}
   10050:	e3a04b01 	mov	r4, #1024	; 0x400
   10054:	e2844032 	add	r4, r4, #50	; 0x32
   10058:	e2105102 	ands	r5, r0, #-2147483648	; 0x80000000
   1005c:	42600000 	rsbmi	r0, r0, #0	; 0x0
   10060:	e1a01000 	mov	r1, r0
   10064:	e3a00000 	mov	r0, #0	; 0x0
   10068:	eaffff84 	b	fe80 <__adddf3+0x148>

0001006c <__aeabi_f2d>:
   1006c:	e1b02080 	movs	r2, r0, lsl #1
   10070:	e1a001c2 	mov	r0, r2, asr #3
   10074:	e1a00060 	mov	r0, r0, rrx
   10078:	e1a01e02 	mov	r1, r2, lsl #28
   1007c:	121234ff 	andnes	r3, r2, #-16777216	; 0xff000000
   10080:	133304ff 	teqne	r3, #-16777216	; 0xff000000
   10084:	1220030e 	eorne	r0, r0, #939524096	; 0x38000000
   10088:	112fff1e 	bxne	lr
   1008c:	e3320000 	teq	r2, #0	; 0x0
   10090:	133304ff 	teqne	r3, #-16777216	; 0xff000000
   10094:	012fff1e 	bxeq	lr
   10098:	e92d4030 	stmdb	sp!, {r4, r5, lr}
   1009c:	e3a04d0e 	mov	r4, #896	; 0x380
   100a0:	e2005102 	and	r5, r0, #-2147483648	; 0x80000000
   100a4:	e3c00102 	bic	r0, r0, #-2147483648	; 0x80000000
   100a8:	eaffff74 	b	fe80 <__adddf3+0x148>

000100ac <__aeabi_ul2d>:
   100ac:	e1902001 	orrs	r2, r0, r1
   100b0:	012fff1e 	bxeq	lr
   100b4:	e92d4030 	stmdb	sp!, {r4, r5, lr}
   100b8:	e3a05000 	mov	r5, #0	; 0x0
   100bc:	ea000006 	b	100dc <__aeabi_l2d+0x1c>

000100c0 <__aeabi_l2d>:
   100c0:	e1902001 	orrs	r2, r0, r1
   100c4:	012fff1e 	bxeq	lr
   100c8:	e92d4030 	stmdb	sp!, {r4, r5, lr}
   100cc:	e2115102 	ands	r5, r1, #-2147483648	; 0x80000000
   100d0:	5a000001 	bpl	100dc <__aeabi_l2d+0x1c>
   100d4:	e2700000 	rsbs	r0, r0, #0	; 0x0
   100d8:	e2e11000 	rsc	r1, r1, #0	; 0x0
   100dc:	e3a04b01 	mov	r4, #1024	; 0x400
   100e0:	e2844032 	add	r4, r4, #50	; 0x32
   100e4:	e1a0c000 	mov	ip, r0
   100e8:	e1a00001 	mov	r0, r1
   100ec:	e1a0100c 	mov	r1, ip
   100f0:	e1b0cb20 	movs	ip, r0, lsr #22
   100f4:	0affff4a 	beq	fe24 <__adddf3+0xec>
   100f8:	e3a02003 	mov	r2, #3	; 0x3
   100fc:	e1b0c1ac 	movs	ip, ip, lsr #3
   10100:	12822003 	addne	r2, r2, #3	; 0x3
   10104:	e1b0c1ac 	movs	ip, ip, lsr #3
   10108:	12822003 	addne	r2, r2, #3	; 0x3
   1010c:	e08221ac 	add	r2, r2, ip, lsr #3
   10110:	e2623020 	rsb	r3, r2, #32	; 0x20
   10114:	e1a0c311 	mov	ip, r1, lsl r3
   10118:	e1a01231 	mov	r1, r1, lsr r2
   1011c:	e1811310 	orr	r1, r1, r0, lsl r3
   10120:	e1a00230 	mov	r0, r0, lsr r2
   10124:	e0844002 	add	r4, r4, r2
   10128:	eaffff3d 	b	fe24 <__adddf3+0xec>

0001012c <__aeabi_dmul>:
   1012c:	e92d4070 	stmdb	sp!, {r4, r5, r6, lr}
   10130:	e3a0c0ff 	mov	ip, #255	; 0xff
   10134:	e38ccc07 	orr	ip, ip, #1792	; 0x700
   10138:	e01c4a20 	ands	r4, ip, r0, lsr #20
   1013c:	101c5a22 	andnes	r5, ip, r2, lsr #20
   10140:	1134000c 	teqne	r4, ip
   10144:	1135000c 	teqne	r5, ip
   10148:	0b00006f 	bleq	1030c <__aeabi_dmul+0x1e0>
   1014c:	e0844005 	add	r4, r4, r5
   10150:	e0206002 	eor	r6, r0, r2
   10154:	e1c00a8c 	bic	r0, r0, ip, lsl #21
   10158:	e1c22a8c 	bic	r2, r2, ip, lsl #21
   1015c:	e1915600 	orrs	r5, r1, r0, lsl #12
   10160:	11935602 	orrnes	r5, r3, r2, lsl #12
   10164:	e3800601 	orr	r0, r0, #1048576	; 0x100000
   10168:	e3822601 	orr	r2, r2, #1048576	; 0x100000
   1016c:	0a00001c 	beq	101e4 <__aeabi_dmul+0xb8>
   10170:	e08ec391 	umull	ip, lr, r1, r3
   10174:	e3a05000 	mov	r5, #0	; 0x0
   10178:	e0a5e390 	umlal	lr, r5, r0, r3
   1017c:	e2063102 	and	r3, r6, #-2147483648	; 0x80000000
   10180:	e0a5e291 	umlal	lr, r5, r1, r2
   10184:	e3a06000 	mov	r6, #0	; 0x0
   10188:	e0a65290 	umlal	r5, r6, r0, r2
   1018c:	e33c0000 	teq	ip, #0	; 0x0
   10190:	138ee001 	orrne	lr, lr, #1	; 0x1
   10194:	e24440ff 	sub	r4, r4, #255	; 0xff
   10198:	e3560c02 	cmp	r6, #512	; 0x200
   1019c:	e2c44c03 	sbc	r4, r4, #768	; 0x300
   101a0:	2a000002 	bcs	101b0 <__aeabi_dmul+0x84>
   101a4:	e1b0e08e 	movs	lr, lr, lsl #1
   101a8:	e0b55005 	adcs	r5, r5, r5
   101ac:	e0a66006 	adc	r6, r6, r6
   101b0:	e1830586 	orr	r0, r3, r6, lsl #11
   101b4:	e1800aa5 	orr	r0, r0, r5, lsr #21
   101b8:	e1a01585 	mov	r1, r5, lsl #11
   101bc:	e1811aae 	orr	r1, r1, lr, lsr #21
   101c0:	e1a0e58e 	mov	lr, lr, lsl #11
   101c4:	e254c0fd 	subs	ip, r4, #253	; 0xfd
   101c8:	835c0c07 	cmphi	ip, #1792	; 0x700
   101cc:	8a00000f 	bhi	10210 <__aeabi_dmul+0xe4>
   101d0:	e35e0102 	cmp	lr, #-2147483648	; 0x80000000
   101d4:	01b0e0a1 	moveqs	lr, r1, lsr #1
   101d8:	e2b11000 	adcs	r1, r1, #0	; 0x0
   101dc:	e0a00a04 	adc	r0, r0, r4, lsl #20
   101e0:	e8bd8070 	ldmia	sp!, {r4, r5, r6, pc}
   101e4:	e2066102 	and	r6, r6, #-2147483648	; 0x80000000
   101e8:	e1860000 	orr	r0, r6, r0
   101ec:	e1811003 	orr	r1, r1, r3
   101f0:	e0200002 	eor	r0, r0, r2
   101f4:	e05440ac 	subs	r4, r4, ip, lsr #1
   101f8:	c074500c 	rsbgts	r5, r4, ip
   101fc:	c1800a04 	orrgt	r0, r0, r4, lsl #20
   10200:	c8bd8070 	ldmgtia	sp!, {r4, r5, r6, pc}
   10204:	e3800601 	orr	r0, r0, #1048576	; 0x100000
   10208:	e3a0e000 	mov	lr, #0	; 0x0
   1020c:	e2544001 	subs	r4, r4, #1	; 0x1
   10210:	ca000058 	bgt	10378 <__aeabi_dmul+0x24c>
   10214:	e3740036 	cmn	r4, #54	; 0x36
   10218:	d3a01000 	movle	r1, #0	; 0x0
   1021c:	d2000102 	andle	r0, r0, #-2147483648	; 0x80000000
   10220:	d8bd8070 	ldmleia	sp!, {r4, r5, r6, pc}
   10224:	e2644000 	rsb	r4, r4, #0	; 0x0
   10228:	e2544020 	subs	r4, r4, #32	; 0x20
   1022c:	aa000018 	bge	10294 <__aeabi_dmul+0x168>
   10230:	e294400c 	adds	r4, r4, #12	; 0xc
   10234:	ca00000b 	bgt	10268 <__aeabi_dmul+0x13c>
   10238:	e2844014 	add	r4, r4, #20	; 0x14
   1023c:	e2645020 	rsb	r5, r4, #32	; 0x20
   10240:	e1a03511 	mov	r3, r1, lsl r5
   10244:	e1a01431 	mov	r1, r1, lsr r4
   10248:	e1811510 	orr	r1, r1, r0, lsl r5
   1024c:	e2002102 	and	r2, r0, #-2147483648	; 0x80000000
   10250:	e3c00102 	bic	r0, r0, #-2147483648	; 0x80000000
   10254:	e0911fa3 	adds	r1, r1, r3, lsr #31
   10258:	e0a20430 	adc	r0, r2, r0, lsr r4
   1025c:	e19ee083 	orrs	lr, lr, r3, lsl #1
   10260:	01c11fa3 	biceq	r1, r1, r3, lsr #31
   10264:	e8bd8070 	ldmia	sp!, {r4, r5, r6, pc}
   10268:	e264400c 	rsb	r4, r4, #12	; 0xc
   1026c:	e2645020 	rsb	r5, r4, #32	; 0x20
   10270:	e1a03411 	mov	r3, r1, lsl r4
   10274:	e1a01531 	mov	r1, r1, lsr r5
   10278:	e1811410 	orr	r1, r1, r0, lsl r4
   1027c:	e2000102 	and	r0, r0, #-2147483648	; 0x80000000
   10280:	e0911fa3 	adds	r1, r1, r3, lsr #31
   10284:	e2a00000 	adc	r0, r0, #0	; 0x0
   10288:	e19ee083 	orrs	lr, lr, r3, lsl #1
   1028c:	01c11fa3 	biceq	r1, r1, r3, lsr #31
   10290:	e8bd8070 	ldmia	sp!, {r4, r5, r6, pc}
   10294:	e2645020 	rsb	r5, r4, #32	; 0x20
   10298:	e18ee511 	orr	lr, lr, r1, lsl r5
   1029c:	e1a03431 	mov	r3, r1, lsr r4
   102a0:	e1833510 	orr	r3, r3, r0, lsl r5
   102a4:	e1a01430 	mov	r1, r0, lsr r4
   102a8:	e2000102 	and	r0, r0, #-2147483648	; 0x80000000
   102ac:	e1c11430 	bic	r1, r1, r0, lsr r4
   102b0:	e0811fa3 	add	r1, r1, r3, lsr #31
   102b4:	e19ee083 	orrs	lr, lr, r3, lsl #1
   102b8:	01c11fa3 	biceq	r1, r1, r3, lsr #31
   102bc:	e8bd8070 	ldmia	sp!, {r4, r5, r6, pc}
   102c0:	e3340000 	teq	r4, #0	; 0x0
   102c4:	1a000008 	bne	102ec <__aeabi_dmul+0x1c0>
   102c8:	e2006102 	and	r6, r0, #-2147483648	; 0x80000000
   102cc:	e1b01081 	movs	r1, r1, lsl #1
   102d0:	e0a00000 	adc	r0, r0, r0
   102d4:	e3100601 	tst	r0, #1048576	; 0x100000
   102d8:	02444001 	subeq	r4, r4, #1	; 0x1
   102dc:	0afffffa 	beq	102cc <__aeabi_dmul+0x1a0>
   102e0:	e1800006 	orr	r0, r0, r6
   102e4:	e3350000 	teq	r5, #0	; 0x0
   102e8:	11a0f00e 	movne	pc, lr
   102ec:	e2026102 	and	r6, r2, #-2147483648	; 0x80000000
   102f0:	e1b03083 	movs	r3, r3, lsl #1
   102f4:	e0a22002 	adc	r2, r2, r2
   102f8:	e3120601 	tst	r2, #1048576	; 0x100000
   102fc:	02455001 	subeq	r5, r5, #1	; 0x1
   10300:	0afffffa 	beq	102f0 <__aeabi_dmul+0x1c4>
   10304:	e1822006 	orr	r2, r2, r6
   10308:	e1a0f00e 	mov	pc, lr
   1030c:	e134000c 	teq	r4, ip
   10310:	e00c5a22 	and	r5, ip, r2, lsr #20
   10314:	1135000c 	teqne	r5, ip
   10318:	0a000006 	beq	10338 <__aeabi_dmul+0x20c>
   1031c:	e1916080 	orrs	r6, r1, r0, lsl #1
   10320:	11936082 	orrnes	r6, r3, r2, lsl #1
   10324:	1affffe5 	bne	102c0 <__aeabi_dmul+0x194>
   10328:	e0200002 	eor	r0, r0, r2
   1032c:	e2000102 	and	r0, r0, #-2147483648	; 0x80000000
   10330:	e3a01000 	mov	r1, #0	; 0x0
   10334:	e8bd8070 	ldmia	sp!, {r4, r5, r6, pc}
   10338:	e1916080 	orrs	r6, r1, r0, lsl #1
   1033c:	01a01003 	moveq	r1, r3
   10340:	01a00002 	moveq	r0, r2
   10344:	11936082 	orrnes	r6, r3, r2, lsl #1
   10348:	0a00000f 	beq	1038c <__aeabi_dmul+0x260>
   1034c:	e134000c 	teq	r4, ip
   10350:	1a000001 	bne	1035c <__aeabi_dmul+0x230>
   10354:	e1916600 	orrs	r6, r1, r0, lsl #12
   10358:	1a00000b 	bne	1038c <__aeabi_dmul+0x260>
   1035c:	e135000c 	teq	r5, ip
   10360:	1a000003 	bne	10374 <__aeabi_dmul+0x248>
   10364:	e1936602 	orrs	r6, r3, r2, lsl #12
   10368:	11a01003 	movne	r1, r3
   1036c:	11a00002 	movne	r0, r2
   10370:	1a000005 	bne	1038c <__aeabi_dmul+0x260>
   10374:	e0200002 	eor	r0, r0, r2
   10378:	e2000102 	and	r0, r0, #-2147483648	; 0x80000000
   1037c:	e380047f 	orr	r0, r0, #2130706432	; 0x7f000000
   10380:	e380060f 	orr	r0, r0, #15728640	; 0xf00000
   10384:	e3a01000 	mov	r1, #0	; 0x0
   10388:	e8bd8070 	ldmia	sp!, {r4, r5, r6, pc}
   1038c:	e380047f 	orr	r0, r0, #2130706432	; 0x7f000000
   10390:	e380073e 	orr	r0, r0, #16252928	; 0xf80000
   10394:	e8bd8070 	ldmia	sp!, {r4, r5, r6, pc}

00010398 <__aeabi_ddiv>:
   10398:	e92d4070 	stmdb	sp!, {r4, r5, r6, lr}
   1039c:	e3a0c0ff 	mov	ip, #255	; 0xff
   103a0:	e38ccc07 	orr	ip, ip, #1792	; 0x700
   103a4:	e01c4a20 	ands	r4, ip, r0, lsr #20
   103a8:	101c5a22 	andnes	r5, ip, r2, lsr #20
   103ac:	1134000c 	teqne	r4, ip
   103b0:	1135000c 	teqne	r5, ip
   103b4:	0b00005c 	bleq	1052c <__aeabi_ddiv+0x194>
   103b8:	e0444005 	sub	r4, r4, r5
   103bc:	e020e002 	eor	lr, r0, r2
   103c0:	e1935602 	orrs	r5, r3, r2, lsl #12
   103c4:	e1a00600 	mov	r0, r0, lsl #12
   103c8:	0a00004b 	beq	104fc <__aeabi_ddiv+0x164>
   103cc:	e1a02602 	mov	r2, r2, lsl #12
   103d0:	e3a05201 	mov	r5, #268435456	; 0x10000000
   103d4:	e1852222 	orr	r2, r5, r2, lsr #4
   103d8:	e1822c23 	orr	r2, r2, r3, lsr #24
   103dc:	e1a03403 	mov	r3, r3, lsl #8
   103e0:	e1855220 	orr	r5, r5, r0, lsr #4
   103e4:	e1855c21 	orr	r5, r5, r1, lsr #24
   103e8:	e1a06401 	mov	r6, r1, lsl #8
   103ec:	e20e0102 	and	r0, lr, #-2147483648	; 0x80000000
   103f0:	e1550002 	cmp	r5, r2
   103f4:	01560003 	cmpeq	r6, r3
   103f8:	e2a440fd 	adc	r4, r4, #253	; 0xfd
   103fc:	e2844c03 	add	r4, r4, #768	; 0x300
   10400:	2a000001 	bcs	1040c <__aeabi_ddiv+0x74>
   10404:	e1b020a2 	movs	r2, r2, lsr #1
   10408:	e1a03063 	mov	r3, r3, rrx
   1040c:	e0566003 	subs	r6, r6, r3
   10410:	e0c55002 	sbc	r5, r5, r2
   10414:	e1b020a2 	movs	r2, r2, lsr #1
   10418:	e1a03063 	mov	r3, r3, rrx
   1041c:	e3a01601 	mov	r1, #1048576	; 0x100000
   10420:	e3a0c702 	mov	ip, #524288	; 0x80000
   10424:	e056e003 	subs	lr, r6, r3
   10428:	e0d5e002 	sbcs	lr, r5, r2
   1042c:	20466003 	subcs	r6, r6, r3
   10430:	21a0500e 	movcs	r5, lr
   10434:	2181100c 	orrcs	r1, r1, ip
   10438:	e1b020a2 	movs	r2, r2, lsr #1
   1043c:	e1a03063 	mov	r3, r3, rrx
   10440:	e056e003 	subs	lr, r6, r3
   10444:	e0d5e002 	sbcs	lr, r5, r2
   10448:	20466003 	subcs	r6, r6, r3
   1044c:	21a0500e 	movcs	r5, lr
   10450:	218110ac 	orrcs	r1, r1, ip, lsr #1
   10454:	e1b020a2 	movs	r2, r2, lsr #1
   10458:	e1a03063 	mov	r3, r3, rrx
   1045c:	e056e003 	subs	lr, r6, r3
   10460:	e0d5e002 	sbcs	lr, r5, r2
   10464:	20466003 	subcs	r6, r6, r3
   10468:	21a0500e 	movcs	r5, lr
   1046c:	2181112c 	orrcs	r1, r1, ip, lsr #2
   10470:	e1b020a2 	movs	r2, r2, lsr #1
   10474:	e1a03063 	mov	r3, r3, rrx
   10478:	e056e003 	subs	lr, r6, r3
   1047c:	e0d5e002 	sbcs	lr, r5, r2
   10480:	20466003 	subcs	r6, r6, r3
   10484:	21a0500e 	movcs	r5, lr
   10488:	218111ac 	orrcs	r1, r1, ip, lsr #3
   1048c:	e195e006 	orrs	lr, r5, r6
   10490:	0a00000d 	beq	104cc <__aeabi_ddiv+0x134>
   10494:	e1a05205 	mov	r5, r5, lsl #4
   10498:	e1855e26 	orr	r5, r5, r6, lsr #28
   1049c:	e1a06206 	mov	r6, r6, lsl #4
   104a0:	e1a02182 	mov	r2, r2, lsl #3
   104a4:	e1822ea3 	orr	r2, r2, r3, lsr #29
   104a8:	e1a03183 	mov	r3, r3, lsl #3
   104ac:	e1b0c22c 	movs	ip, ip, lsr #4
   104b0:	1affffdb 	bne	10424 <__aeabi_ddiv+0x8c>
   104b4:	e3100601 	tst	r0, #1048576	; 0x100000
   104b8:	1a000006 	bne	104d8 <__aeabi_ddiv+0x140>
   104bc:	e1800001 	orr	r0, r0, r1
   104c0:	e3a01000 	mov	r1, #0	; 0x0
   104c4:	e3a0c102 	mov	ip, #-2147483648	; 0x80000000
   104c8:	eaffffd5 	b	10424 <__aeabi_ddiv+0x8c>
   104cc:	e3100601 	tst	r0, #1048576	; 0x100000
   104d0:	01800001 	orreq	r0, r0, r1
   104d4:	03a01000 	moveq	r1, #0	; 0x0
   104d8:	e254c0fd 	subs	ip, r4, #253	; 0xfd
   104dc:	835c0c07 	cmphi	ip, #1792	; 0x700
   104e0:	8affff4a 	bhi	10210 <__aeabi_dmul+0xe4>
   104e4:	e055c002 	subs	ip, r5, r2
   104e8:	0056c003 	subeqs	ip, r6, r3
   104ec:	01b0c0a1 	moveqs	ip, r1, lsr #1
   104f0:	e2b11000 	adcs	r1, r1, #0	; 0x0
   104f4:	e0a00a04 	adc	r0, r0, r4, lsl #20
   104f8:	e8bd8070 	ldmia	sp!, {r4, r5, r6, pc}
   104fc:	e20ee102 	and	lr, lr, #-2147483648	; 0x80000000
   10500:	e18e0620 	orr	r0, lr, r0, lsr #12
   10504:	e09440ac 	adds	r4, r4, ip, lsr #1
   10508:	c074500c 	rsbgts	r5, r4, ip
   1050c:	c1800a04 	orrgt	r0, r0, r4, lsl #20
   10510:	c8bd8070 	ldmgtia	sp!, {r4, r5, r6, pc}
   10514:	e3800601 	orr	r0, r0, #1048576	; 0x100000
   10518:	e3a0e000 	mov	lr, #0	; 0x0
   1051c:	e2544001 	subs	r4, r4, #1	; 0x1
   10520:	eaffff3a 	b	10210 <__aeabi_dmul+0xe4>
   10524:	e185e006 	orr	lr, r5, r6
   10528:	eaffff38 	b	10210 <__aeabi_dmul+0xe4>
   1052c:	e00c5a22 	and	r5, ip, r2, lsr #20
   10530:	e134000c 	teq	r4, ip
   10534:	0135000c 	teqeq	r5, ip
   10538:	0affff93 	beq	1038c <__aeabi_dmul+0x260>
   1053c:	e134000c 	teq	r4, ip
   10540:	1a000006 	bne	10560 <__aeabi_ddiv+0x1c8>
   10544:	e1914600 	orrs	r4, r1, r0, lsl #12
   10548:	1affff8f 	bne	1038c <__aeabi_dmul+0x260>
   1054c:	e135000c 	teq	r5, ip
   10550:	1affff87 	bne	10374 <__aeabi_dmul+0x248>
   10554:	e1a01003 	mov	r1, r3
   10558:	e1a00002 	mov	r0, r2
   1055c:	eaffff8a 	b	1038c <__aeabi_dmul+0x260>
   10560:	e135000c 	teq	r5, ip
   10564:	1a000004 	bne	1057c <__aeabi_ddiv+0x1e4>
   10568:	e1935602 	orrs	r5, r3, r2, lsl #12
   1056c:	0affff6d 	beq	10328 <__aeabi_dmul+0x1fc>
   10570:	e1a01003 	mov	r1, r3
   10574:	e1a00002 	mov	r0, r2
   10578:	eaffff83 	b	1038c <__aeabi_dmul+0x260>
   1057c:	e1916080 	orrs	r6, r1, r0, lsl #1
   10580:	11936082 	orrnes	r6, r3, r2, lsl #1
   10584:	1affff4d 	bne	102c0 <__aeabi_dmul+0x194>
   10588:	e1914080 	orrs	r4, r1, r0, lsl #1
   1058c:	1affff78 	bne	10374 <__aeabi_dmul+0x248>
   10590:	e1935082 	orrs	r5, r3, r2, lsl #1
   10594:	1affff63 	bne	10328 <__aeabi_dmul+0x1fc>
   10598:	eaffff7b 	b	1038c <__aeabi_dmul+0x260>

0001059c <__gedf2>:
   1059c:	e3e0c000 	mvn	ip, #0	; 0x0
   105a0:	ea000002 	b	105b0 <__cmpdf2+0x4>

000105a4 <__ledf2>:
   105a4:	e3a0c001 	mov	ip, #1	; 0x1
   105a8:	ea000000 	b	105b0 <__cmpdf2+0x4>

000105ac <__cmpdf2>:
   105ac:	e3a0c001 	mov	ip, #1	; 0x1
   105b0:	e50dc004 	str	ip, [sp, #-4]
   105b4:	e1a0c080 	mov	ip, r0, lsl #1
   105b8:	e1f0cacc 	mvns	ip, ip, asr #21
   105bc:	e1a0c082 	mov	ip, r2, lsl #1
   105c0:	11f0cacc 	mvnnes	ip, ip, asr #21
   105c4:	0a00000d 	beq	10600 <__cmpdf2+0x54>
   105c8:	e191c080 	orrs	ip, r1, r0, lsl #1
   105cc:	0193c082 	orreqs	ip, r3, r2, lsl #1
   105d0:	11300002 	teqne	r0, r2
   105d4:	01310003 	teqeq	r1, r3
   105d8:	03a00000 	moveq	r0, #0	; 0x0
   105dc:	012fff1e 	bxeq	lr
   105e0:	e3700000 	cmn	r0, #0	; 0x0
   105e4:	e1300002 	teq	r0, r2
   105e8:	51500002 	cmppl	r0, r2
   105ec:	01510003 	cmpeq	r1, r3
   105f0:	21a00fc2 	movcs	r0, r2, asr #31
   105f4:	31e00fc2 	mvncc	r0, r2, asr #31
   105f8:	e3800001 	orr	r0, r0, #1	; 0x1
   105fc:	e12fff1e 	bx	lr
   10600:	e1a0c080 	mov	ip, r0, lsl #1
   10604:	e1f0cacc 	mvns	ip, ip, asr #21
   10608:	1a000001 	bne	10614 <__cmpdf2+0x68>
   1060c:	e191c600 	orrs	ip, r1, r0, lsl #12
   10610:	1a000004 	bne	10628 <__cmpdf2+0x7c>
   10614:	e1a0c082 	mov	ip, r2, lsl #1
   10618:	e1f0cacc 	mvns	ip, ip, asr #21
   1061c:	1affffe9 	bne	105c8 <__cmpdf2+0x1c>
   10620:	e193c602 	orrs	ip, r3, r2, lsl #12
   10624:	0affffe7 	beq	105c8 <__cmpdf2+0x1c>
   10628:	e51d0004 	ldr	r0, [sp, #-4]
   1062c:	e12fff1e 	bx	lr

00010630 <__aeabi_cdrcmple>:
   10630:	e1a0c000 	mov	ip, r0
   10634:	e1a00002 	mov	r0, r2
   10638:	e1a0200c 	mov	r2, ip
   1063c:	e1a0c001 	mov	ip, r1
   10640:	e1a01003 	mov	r1, r3
   10644:	e1a0300c 	mov	r3, ip
   10648:	eaffffff 	b	1064c <__aeabi_cdcmpeq>

0001064c <__aeabi_cdcmpeq>:
   1064c:	e92d4001 	stmdb	sp!, {r0, lr}
   10650:	ebffffd5 	bl	105ac <__cmpdf2>
   10654:	e3500000 	cmp	r0, #0	; 0x0
   10658:	43700000 	cmnmi	r0, #0	; 0x0
   1065c:	e8bd8001 	ldmia	sp!, {r0, pc}

00010660 <__aeabi_dcmpeq>:
   10660:	e52de008 	str	lr, [sp, #-8]!
   10664:	ebfffff8 	bl	1064c <__aeabi_cdcmpeq>
   10668:	03a00001 	moveq	r0, #1	; 0x1
   1066c:	13a00000 	movne	r0, #0	; 0x0
   10670:	e49df008 	ldr	pc, [sp], #8

00010674 <__aeabi_dcmplt>:
   10674:	e52de008 	str	lr, [sp, #-8]!
   10678:	ebfffff3 	bl	1064c <__aeabi_cdcmpeq>
   1067c:	33a00001 	movcc	r0, #1	; 0x1
   10680:	23a00000 	movcs	r0, #0	; 0x0
   10684:	e49df008 	ldr	pc, [sp], #8

00010688 <__aeabi_dcmple>:
   10688:	e52de008 	str	lr, [sp, #-8]!
   1068c:	ebffffee 	bl	1064c <__aeabi_cdcmpeq>
   10690:	93a00001 	movls	r0, #1	; 0x1
   10694:	83a00000 	movhi	r0, #0	; 0x0
   10698:	e49df008 	ldr	pc, [sp], #8

0001069c <__aeabi_dcmpge>:
   1069c:	e52de008 	str	lr, [sp, #-8]!
   106a0:	ebffffe2 	bl	10630 <__aeabi_cdrcmple>
   106a4:	93a00001 	movls	r0, #1	; 0x1
   106a8:	83a00000 	movhi	r0, #0	; 0x0
   106ac:	e49df008 	ldr	pc, [sp], #8

000106b0 <__aeabi_dcmpgt>:
   106b0:	e52de008 	str	lr, [sp, #-8]!
   106b4:	ebffffdd 	bl	10630 <__aeabi_cdrcmple>
   106b8:	33a00001 	movcc	r0, #1	; 0x1
   106bc:	23a00000 	movcs	r0, #0	; 0x0
   106c0:	e49df008 	ldr	pc, [sp], #8

000106c4 <__aeabi_d2iz>:
   106c4:	e1a02080 	mov	r2, r0, lsl #1
   106c8:	e2922602 	adds	r2, r2, #2097152	; 0x200000
   106cc:	2a00000c 	bcs	10704 <__aeabi_d2iz+0x40>
   106d0:	5a000009 	bpl	106fc <__aeabi_d2iz+0x38>
   106d4:	e3e03e3e 	mvn	r3, #992	; 0x3e0
   106d8:	e0532ac2 	subs	r2, r3, r2, asr #21
   106dc:	9a00000a 	bls	1070c <__aeabi_d2iz+0x48>
   106e0:	e1a03580 	mov	r3, r0, lsl #11
   106e4:	e3833102 	orr	r3, r3, #-2147483648	; 0x80000000
   106e8:	e1833aa1 	orr	r3, r3, r1, lsr #21
   106ec:	e3100102 	tst	r0, #-2147483648	; 0x80000000
   106f0:	e1a00233 	mov	r0, r3, lsr r2
   106f4:	12600000 	rsbne	r0, r0, #0	; 0x0
   106f8:	e12fff1e 	bx	lr
   106fc:	e3a00000 	mov	r0, #0	; 0x0
   10700:	e12fff1e 	bx	lr
   10704:	e1911600 	orrs	r1, r1, r0, lsl #12
   10708:	1a000002 	bne	10718 <__aeabi_d2iz+0x54>
   1070c:	e2100102 	ands	r0, r0, #-2147483648	; 0x80000000
   10710:	03e00102 	mvneq	r0, #-2147483648	; 0x80000000
   10714:	e12fff1e 	bx	lr
   10718:	e3a00000 	mov	r0, #0	; 0x0
   1071c:	e12fff1e 	bx	lr

00010720 <__do_global_ctors_aux>:
   10720:	e59f2028 	ldr	r2, [pc, #40]	; 10750 <.text+0x8730>
   10724:	e5123004 	ldr	r3, [r2, #-4]
   10728:	e3730001 	cmn	r3, #1	; 0x1
   1072c:	e92d4010 	stmdb	sp!, {r4, lr}
   10730:	08bd8010 	ldmeqia	sp!, {r4, pc}
   10734:	e2424004 	sub	r4, r2, #4	; 0x4
   10738:	e1a0e00f 	mov	lr, pc
   1073c:	e12fff13 	bx	r3
   10740:	e5343004 	ldr	r3, [r4, #-4]!
   10744:	e3730001 	cmn	r3, #1	; 0x1
   10748:	1afffffa 	bne	10738 <__do_global_ctors_aux+0x18>
   1074c:	e8bd8010 	ldmia	sp!, {r4, pc}
   10750:	00010aa4 	andeq	r0, r1, r4, lsr #21

00010754 <call___do_global_ctors_aux>:
   10754:	e52de004 	str	lr, [sp, #-4]!
   10758:	e49df004 	ldr	pc, [sp], #4
